Archive member included to satisfy reference by file (symbol)

build/cooja/mtype152.a(simEnvChange.o)
                              build/cooja/mtype152.o (simDontFallAsleep)
build/cooja/mtype152.a(cooja_mt.o)
                              build/cooja/mtype152.o (cooja_mt_start)
build/cooja/mtype152.a(cooja_mtarch.o)
                              build/cooja/mtype152.a(cooja_mt.o) (cooja_mtarch_start)
build/cooja/mtype152.a(rtimer-arch.o)
                              build/cooja/mtype152.o (rtimer_arch_check)
build/cooja/mtype152.a(beep.o)
                              build/cooja/mtype152.o (beep_interface)
build/cooja/mtype152.a(leds-arch.o)
                              build/cooja/mtype152.o (leds_interface)
build/cooja/mtype152.a(moteid.o)
                              build/cooja/mtype152.o (moteid_interface)
build/cooja/mtype152.a(pir-sensor.o)
                              build/cooja/mtype152.o (pir_interface)
build/cooja/mtype152.a(rs232.o)
                              build/cooja/mtype152.o (rs232_interface)
build/cooja/mtype152.a(vib-sensor.o)
                              build/cooja/mtype152.o (vib_interface)
build/cooja/mtype152.a(clock.o)
                              build/cooja/mtype152.o (clock_interface)
build/cooja/mtype152.a(cooja-log.o)
                              build/cooja/mtype152.o (simlog_interface)
build/cooja/mtype152.a(cfs-cooja.o)
                              build/cooja/mtype152.o (cfs_interface)
build/cooja/mtype152.a(cooja-radio.o)
                              build/cooja/mtype152.o (radio_interface)
build/cooja/mtype152.a(eeprom.o)
                              build/cooja/mtype152.o (eeprom_interface)
build/cooja/mtype152.a(random.o)
                              build/cooja/mtype152.a(moteid.o) (random_init)
build/cooja/mtype152.a(sensors.o)
                              build/cooja/mtype152.a(pir-sensor.o) (sensors_changed)
build/cooja/mtype152.a(leds.o)
                              build/cooja/mtype152.a(leds-arch.o) (leds_get)
build/cooja/mtype152.a(gpio-hal-arch.o)
                              build/cooja/mtype152.a(leds-arch.o) (gpio_hal_arch_register_pin_callback)
build/cooja/mtype152.a(buttons.o)
                              build/cooja/mtype152.o (button_interface)
build/cooja/mtype152.a(temperature.o)
                              node.o (temperature)
build/cooja/mtype152.a(alarm.o)
                              node.o (ledAlarm)
build/cooja/mtype152.a(coap-blocking-a)
                              node.o (coap_blocking_request)
build/cooja/mtype152.a(coap-engine.o)
                              node.o (coap_activate_resource)
build/cooja/mtype152.a(coap-res-well-k)
                              build/cooja/mtype152.a(coap-engine.o) (res_well_known_core)
build/cooja/mtype152.a(coap-observe.o)
                              build/cooja/mtype152.a(coap-engine.o) (coap_remove_observer_by_mid)
build/cooja/mtype152.a(coap-uip.o)
                              build/cooja/mtype152.a(coap-observe.o) (coap_endpoint_copy)
build/cooja/mtype152.a(coap-timer.o)
                              build/cooja/mtype152.a(coap-engine.o) (coap_timer_set)
build/cooja/mtype152.a(coap-transactio)
                              build/cooja/mtype152.a(coap-blocking-a) (coap_send_transaction)
build/cooja/mtype152.a(coap.o)
                              build/cooja/mtype152.a(coap-engine.o) (coap_status_code)
build/cooja/mtype152.a(contiki-main.o)
                              build/cooja/mtype152.o (main)
build/cooja/mtype152.a(autostart.o)
                              build/cooja/mtype152.a(contiki-main.o) (autostart_start)
build/cooja/mtype152.a(ctimer.o)
                              build/cooja/mtype152.a(contiki-main.o) (ctimer_init)
build/cooja/mtype152.a(log.o)
                              build/cooja/mtype152.a(contiki-main.o) (curr_log_level_main)
build/cooja/mtype152.a(energest.o)
                              build/cooja/mtype152.a(contiki-main.o) (energest_init)
build/cooja/mtype152.a(etimer.o)
                              build/cooja/mtype152.a(contiki-main.o) (etimer_process)
build/cooja/mtype152.a(node-id.o)
                              build/cooja/mtype152.a(contiki-main.o) (node_id)
build/cooja/mtype152.a(rtimer.o)
                              build/cooja/mtype152.a(contiki-main.o) (rtimer_init)
build/cooja/mtype152.a(process.o)
                              node.o (process_current)
build/cooja/mtype152.a(timer.o)
                              build/cooja/mtype152.a(etimer.o) (timer_set)
build/cooja/mtype152.a(list.o)
                              build/cooja/mtype152.a(coap-engine.o) (list_init)
build/cooja/mtype152.a(memb.o)
                              build/cooja/mtype152.a(coap-observe.o) (memb_alloc)
build/cooja/mtype152.a(button-hal.o)
                              build/cooja/mtype152.o (button_hal_init)
build/cooja/mtype152.a(serial-line.o)
                              build/cooja/mtype152.a(rs232.o) (serial_line_input_byte)
build/cooja/mtype152.a(gpio-hal.o)
                              build/cooja/mtype152.a(button-hal.o) (gpio_hal_register_handler)
build/cooja/mtype152.a(queuebuf.o)
                              build/cooja/mtype152.a(contiki-main.o) (queuebuf_init)
build/cooja/mtype152.a(packetbuf.o)
                              build/cooja/mtype152.a(cooja-radio.o) (packetbuf_clear)
build/cooja/mtype152.a(netstack.o)
                              build/cooja/mtype152.a(contiki-main.o) (netstack_init)
build/cooja/mtype152.a(linkaddr.o)
                              build/cooja/mtype152.a(contiki-main.o) (linkaddr_node_addr)
build/cooja/mtype152.a(csma.o)
                              build/cooja/mtype152.a(cooja-radio.o) (csma_driver)
build/cooja/mtype152.a(csma-output.o)
                              build/cooja/mtype152.a(csma.o) (csma_output_packet)
build/cooja/mtype152.a(uip-ds6.o)
                              build/cooja/mtype152.a(contiki-main.o) (uip_ds6_get_link_local)
build/cooja/mtype152.a(uip-udp-packet.)
                              build/cooja/mtype152.a(coap-uip.o) (uip_udp_packet_sendto)
build/cooja/mtype152.a(uip-ds6-route.o)
                              build/cooja/mtype152.a(uip-ds6.o) (uip_ds6_route_init)
build/cooja/mtype152.a(tcpip.o)
                              build/cooja/mtype152.a(coap-uip.o) (tcpip_event)
build/cooja/mtype152.a(uip6.o)
                              build/cooja/mtype152.a(contiki-main.o) (uip_lladdr)
build/cooja/mtype152.a(uip-ds6-nbr.o)
                              build/cooja/mtype152.a(uip-ds6.o) (uip_ds6_neighbors_init)
build/cooja/mtype152.a(uip-nd6.o)
                              build/cooja/mtype152.a(uip6.o) (uip_nd6_init)
build/cooja/mtype152.a(sicslowpan.o)
                              build/cooja/mtype152.a(contiki-main.o) (sicslowpan_driver)
build/cooja/mtype152.a(uiplib.o)
                              build/cooja/mtype152.a(coap-uip.o) (uiplib_ip6addrconv)
build/cooja/mtype152.a(rpl.o)
                              build/cooja/mtype152.a(coap-uip.o) (rpl_lite_driver)
build/cooja/mtype152.a(rpl-icmp6.o)
                              build/cooja/mtype152.a(rpl.o) (rpl_icmp6_init)
build/cooja/mtype152.a(rpl-dag-root.o)
                              build/cooja/mtype152.a(rpl.o) (rpl_dag_root_is_root)
build/cooja/mtype152.a(watchdog.o)
                              build/cooja/mtype152.a(contiki-main.o) (watchdog_init)
build/cooja/mtype152.a(int-master.o)
                              build/cooja/mtype152.a(button-hal.o) (int_master_read_and_disable)
build/cooja/mtype152.a(coap-timer-defa)
                              build/cooja/mtype152.a(coap-timer.o) (coap_timer_default_driver)
build/cooja/mtype152.a(stimer.o)
                              build/cooja/mtype152.a(uip-ds6.o) (stimer_set)
build/cooja/mtype152.a(ringbuf.o)
                              build/cooja/mtype152.a(serial-line.o) (ringbuf_init)
build/cooja/mtype152.a(assert.o)
                              build/cooja/mtype152.a(csma-output.o) (_xassert)
build/cooja/mtype152.a(nbr-table.o)
                              build/cooja/mtype152.a(uip-ds6-nbr.o) (nbr_table_register)
build/cooja/mtype152.a(link-stats.o)
                              build/cooja/mtype152.a(sicslowpan.o) (link_stats_packet_sent)
build/cooja/mtype152.a(mac-sequence.o)
                              build/cooja/mtype152.a(csma.o) (mac_sequence_is_duplicate)
build/cooja/mtype152.a(mac.o)
                              build/cooja/mtype152.a(csma-output.o) (mac_call_sent_callback)
build/cooja/mtype152.a(framer-802154.o)
                              build/cooja/mtype152.a(csma.o) (framer_802154)
build/cooja/mtype152.a(frame802154.o)
                              build/cooja/mtype152.a(framer-802154.o) (frame802154_get_pan_id)
build/cooja/mtype152.a(csma-security.o)
                              build/cooja/mtype152.a(csma-output.o) (csma_security_create_frame)
build/cooja/mtype152.a(uipbuf.o)
                              build/cooja/mtype152.a(tcpip.o) (uipbuf_clear)
build/cooja/mtype152.a(uip-icmp6.o)
                              build/cooja/mtype152.a(uip6.o) (uip_icmp6_input)
build/cooja/mtype152.a(uip-sr.o)
                              build/cooja/mtype152.a(rpl-dag-root.o) (uip_sr_num_nodes)
build/cooja/mtype152.a(uip-packetqueue)
                              build/cooja/mtype152.a(uip-ds6-nbr.o) (uip_packetqueue_new)
build/cooja/mtype152.a(rpl-nbr-policy.)
                              build/cooja/mtype152.a(nbr-table.o) (rpl_nbr_policy_find_removable)
build/cooja/mtype152.a(rpl-neighbor.o)
                              build/cooja/mtype152.a(rpl-icmp6.o) (rpl_neighbor_get_ipaddr)
build/cooja/mtype152.a(rpl-dag.o)
                              build/cooja/mtype152.a(rpl.o) (curr_instance)
build/cooja/mtype152.a(rpl-timers.o)
                              build/cooja/mtype152.a(rpl-dag.o) (rpl_timers_schedule_periodic_dis)
build/cooja/mtype152.a(rpl-ext-header.)
                              build/cooja/mtype152.a(rpl.o) (rpl_ext_header_srh_get_next_hop)
build/cooja/mtype152.a(rpl-mrhof.o)
                              build/cooja/mtype152.a(rpl-dag.o) (rpl_mrhof)

As-needed library included to satisfy reference by file (symbol)

libc.so.6                     node.o (srand@@GLIBC_2.2.5)

Allocating common symbols
Common symbol       size              file

simButtonIsDown     0x1               build/cooja/mtype152.a(buttons.o)
simOutDataBuffer    0x7d              build/cooja/mtype152.a(cooja-radio.o)
uip_ds6_prefix_list
                    0x60              build/cooja/mtype152.a(uip-ds6.o)
linkaddr_node_addr  0x8               build/cooja/mtype152.a(linkaddr.o)
simSerialReceivingFlag
                    0x1               build/cooja/mtype152.a(rs232.o)
simEEPROMData       0x400             build/cooja/mtype152.a(eeprom.o)
periodic_timer      0x40              build/cooja/mtype152.a(link-stats.o)
simLoggedLength     0x4               build/cooja/mtype152.a(cooja-log.o)
simSerialReceivingLength
                    0x4               build/cooja/mtype152.a(rs232.o)
simEtimerPending    0x4               build/cooja/mtype152.a(simEnvChange.o)
uip_slen            0x2               build/cooja/mtype152.a(uip6.o)
uip_ds6_timer_periodic
                    0x20              build/cooja/mtype152.a(uip-ds6.o)
eb_per_time_source  0x30              build/cooja/mtype152.a(contiki-main.o)
unicast_per_neighbor_rpl_storing
                    0x30              build/cooja/mtype152.a(contiki-main.o)
simVibChanged       0x1               build/cooja/mtype152.a(vib-sensor.o)
simRtimerPending    0x4               build/cooja/mtype152.a(rtimer-arch.o)
button_hal_periodic_event
                    0x1               build/cooja/mtype152.a(button-hal.o)
uip_ds6_netif_addr_list_offset
                    0x1               build/cooja/mtype152.a(uip-ds6.o)
uip_lladdr          0x8               build/cooja/mtype152.a(uip6.o)
button_hal_press_event
                    0x1               build/cooja/mtype152.a(button-hal.o)
simProcessRunValue  0x4               build/cooja/mtype152.a(simEnvChange.o)
serial_line_event_message
                    0x1               build/cooja/mtype152.a(serial-line.o)
uip_appdata         0x8               build/cooja/mtype152.a(uip6.o)
referenceVar        0x8               build/cooja/mtype152.o
simCurrentTime      0x8               build/cooja/mtype152.a(clock.o)
simVibIsActive      0x1               build/cooja/mtype152.a(vib-sensor.o)
unicast_per_neighbor_rpl_ns
                    0x30              build/cooja/mtype152.a(contiki-main.o)
uip_ds6_if          0x110             build/cooja/mtype152.a(uip-ds6.o)
uip_flags           0x1               build/cooja/mtype152.a(uip6.o)
uip_ds6_timer_ra    0x10              build/cooja/mtype152.a(uip-ds6.o)
default_common      0x30              build/cooja/mtype152.a(contiki-main.o)
simSerialReceivingData
                    0x800             build/cooja/mtype152.a(rs232.o)
simLoggedFlag       0x1               build/cooja/mtype152.a(cooja-log.o)
packetbuf_attrs     0x1a              build/cooja/mtype152.a(packetbuf.o)
uip_ds6_addr_size   0x1               build/cooja/mtype152.a(uip-ds6.o)
uip_aligned_buf     0x500             build/cooja/mtype152.a(uip6.o)
simRtimerCurrentTicks
                    0x8               build/cooja/mtype152.a(rtimer-arch.o)
simRandomSeed       0x4               build/cooja/mtype152.a(moteid.o)
rpl_multicast_addr  0x10              build/cooja/mtype152.a(rpl.o)
simLoggedData       0x2000            build/cooja/mtype152.a(cooja-log.o)
simEtimerNextExpirationTime
                    0x8               build/cooja/mtype152.a(simEnvChange.o)
uip_len             0x2               build/cooja/mtype152.a(uip6.o)
simButtonChanged    0x1               build/cooja/mtype152.a(buttons.o)
simRtimerNextExpirationTime
                    0x8               build/cooja/mtype152.a(rtimer-arch.o)
simPirIsActive      0x1               build/cooja/mtype152.a(pir-sensor.o)
simInDataBuffer     0x7d              build/cooja/mtype152.a(cooja-radio.o)
simPirChanged       0x1               build/cooja/mtype152.a(pir-sensor.o)
simBeeped           0x1               build/cooja/mtype152.a(beep.o)
tcpip_event         0x1               build/cooja/mtype152.a(tcpip.o)
uip_sappdata        0x8               build/cooja/mtype152.a(uip6.o)
sensors_event       0x1               build/cooja/mtype152.a(sensors.o)
uip_udp_conns       0x140             build/cooja/mtype152.a(uip6.o)
button_hal_release_event
                    0x1               build/cooja/mtype152.a(button-hal.o)
packetbuf_addrs     0x10              build/cooja/mtype152.a(packetbuf.o)
uip_udp_conn        0x8               build/cooja/mtype152.a(uip6.o)
simMoteIDChanged    0x1               build/cooja/mtype152.a(moteid.o)
sensors_flags       0x4               build/cooja/mtype152.o
curr_instance       0x260             build/cooja/mtype152.a(rpl-dag.o)
simMoteID           0x4               build/cooja/mtype152.a(moteid.o)
uip_conn            0x8               build/cooja/mtype152.a(uip6.o)

Discarded input sections

 .note.GNU-stack
                0x0000000000000000        0x0 /usr/lib/gcc/x86_64-linux-gnu/7/../../../x86_64-linux-gnu/crti.o
 .note.GNU-stack
                0x0000000000000000        0x0 /usr/lib/gcc/x86_64-linux-gnu/7/crtbeginS.o
 .note.GNU-stack
                0x0000000000000000        0x0 node.o
 .note.GNU-stack
                0x0000000000000000        0x0 build/cooja/mtype152.o
 .note.GNU-stack
                0x0000000000000000        0x0 build/cooja/mtype152.a(simEnvChange.o)
 .note.GNU-stack
                0x0000000000000000        0x0 build/cooja/mtype152.a(cooja_mt.o)
 .note.GNU-stack
                0x0000000000000000        0x0 build/cooja/mtype152.a(cooja_mtarch.o)
 .note.GNU-stack
                0x0000000000000000        0x0 build/cooja/mtype152.a(rtimer-arch.o)
 .note.GNU-stack
                0x0000000000000000        0x0 build/cooja/mtype152.a(beep.o)
 .note.GNU-stack
                0x0000000000000000        0x0 build/cooja/mtype152.a(leds-arch.o)
 .note.GNU-stack
                0x0000000000000000        0x0 build/cooja/mtype152.a(moteid.o)
 .note.GNU-stack
                0x0000000000000000        0x0 build/cooja/mtype152.a(pir-sensor.o)
 .note.GNU-stack
                0x0000000000000000        0x0 build/cooja/mtype152.a(rs232.o)
 .note.GNU-stack
                0x0000000000000000        0x0 build/cooja/mtype152.a(vib-sensor.o)
 .note.GNU-stack
                0x0000000000000000        0x0 build/cooja/mtype152.a(clock.o)
 .note.GNU-stack
                0x0000000000000000        0x0 build/cooja/mtype152.a(cooja-log.o)
 .note.GNU-stack
                0x0000000000000000        0x0 build/cooja/mtype152.a(cfs-cooja.o)
 .note.GNU-stack
                0x0000000000000000        0x0 build/cooja/mtype152.a(cooja-radio.o)
 .note.GNU-stack
                0x0000000000000000        0x0 build/cooja/mtype152.a(eeprom.o)
 .note.GNU-stack
                0x0000000000000000        0x0 build/cooja/mtype152.a(random.o)
 .note.GNU-stack
                0x0000000000000000        0x0 build/cooja/mtype152.a(sensors.o)
 .note.GNU-stack
                0x0000000000000000        0x0 build/cooja/mtype152.a(leds.o)
 .note.GNU-stack
                0x0000000000000000        0x0 build/cooja/mtype152.a(gpio-hal-arch.o)
 .note.GNU-stack
                0x0000000000000000        0x0 build/cooja/mtype152.a(buttons.o)
 .note.GNU-stack
                0x0000000000000000        0x0 build/cooja/mtype152.a(temperature.o)
 .note.GNU-stack
                0x0000000000000000        0x0 build/cooja/mtype152.a(alarm.o)
 .note.GNU-stack
                0x0000000000000000        0x0 build/cooja/mtype152.a(coap-blocking-a)
 .note.GNU-stack
                0x0000000000000000        0x0 build/cooja/mtype152.a(coap-engine.o)
 .note.GNU-stack
                0x0000000000000000        0x0 build/cooja/mtype152.a(coap-res-well-k)
 .note.GNU-stack
                0x0000000000000000        0x0 build/cooja/mtype152.a(coap-observe.o)
 .note.GNU-stack
                0x0000000000000000        0x0 build/cooja/mtype152.a(coap-uip.o)
 .note.GNU-stack
                0x0000000000000000        0x0 build/cooja/mtype152.a(coap-timer.o)
 .note.GNU-stack
                0x0000000000000000        0x0 build/cooja/mtype152.a(coap-transactio)
 .note.GNU-stack
                0x0000000000000000        0x0 build/cooja/mtype152.a(coap.o)
 .note.GNU-stack
                0x0000000000000000        0x0 build/cooja/mtype152.a(contiki-main.o)
 .note.GNU-stack
                0x0000000000000000        0x0 build/cooja/mtype152.a(autostart.o)
 .note.GNU-stack
                0x0000000000000000        0x0 build/cooja/mtype152.a(ctimer.o)
 .note.GNU-stack
                0x0000000000000000        0x0 build/cooja/mtype152.a(log.o)
 .note.GNU-stack
                0x0000000000000000        0x0 build/cooja/mtype152.a(energest.o)
 .note.GNU-stack
                0x0000000000000000        0x0 build/cooja/mtype152.a(etimer.o)
 .note.GNU-stack
                0x0000000000000000        0x0 build/cooja/mtype152.a(node-id.o)
 .note.GNU-stack
                0x0000000000000000        0x0 build/cooja/mtype152.a(rtimer.o)
 .note.GNU-stack
                0x0000000000000000        0x0 build/cooja/mtype152.a(process.o)
 .note.GNU-stack
                0x0000000000000000        0x0 build/cooja/mtype152.a(timer.o)
 .note.GNU-stack
                0x0000000000000000        0x0 build/cooja/mtype152.a(list.o)
 .note.GNU-stack
                0x0000000000000000        0x0 build/cooja/mtype152.a(memb.o)
 .note.GNU-stack
                0x0000000000000000        0x0 build/cooja/mtype152.a(button-hal.o)
 .note.GNU-stack
                0x0000000000000000        0x0 build/cooja/mtype152.a(serial-line.o)
 .note.GNU-stack
                0x0000000000000000        0x0 build/cooja/mtype152.a(gpio-hal.o)
 .note.GNU-stack
                0x0000000000000000        0x0 build/cooja/mtype152.a(queuebuf.o)
 .note.GNU-stack
                0x0000000000000000        0x0 build/cooja/mtype152.a(packetbuf.o)
 .note.GNU-stack
                0x0000000000000000        0x0 build/cooja/mtype152.a(netstack.o)
 .note.GNU-stack
                0x0000000000000000        0x0 build/cooja/mtype152.a(linkaddr.o)
 .note.GNU-stack
                0x0000000000000000        0x0 build/cooja/mtype152.a(csma.o)
 .note.GNU-stack
                0x0000000000000000        0x0 build/cooja/mtype152.a(csma-output.o)
 .note.GNU-stack
                0x0000000000000000        0x0 build/cooja/mtype152.a(uip-ds6.o)
 .note.GNU-stack
                0x0000000000000000        0x0 build/cooja/mtype152.a(uip-udp-packet.)
 .note.GNU-stack
                0x0000000000000000        0x0 build/cooja/mtype152.a(uip-ds6-route.o)
 .note.GNU-stack
                0x0000000000000000        0x0 build/cooja/mtype152.a(tcpip.o)
 .note.GNU-stack
                0x0000000000000000        0x0 build/cooja/mtype152.a(uip6.o)
 .note.GNU-stack
                0x0000000000000000        0x0 build/cooja/mtype152.a(uip-ds6-nbr.o)
 .note.GNU-stack
                0x0000000000000000        0x0 build/cooja/mtype152.a(uip-nd6.o)
 .note.GNU-stack
                0x0000000000000000        0x0 build/cooja/mtype152.a(sicslowpan.o)
 .note.GNU-stack
                0x0000000000000000        0x0 build/cooja/mtype152.a(uiplib.o)
 .note.GNU-stack
                0x0000000000000000        0x0 build/cooja/mtype152.a(rpl.o)
 .note.GNU-stack
                0x0000000000000000        0x0 build/cooja/mtype152.a(rpl-icmp6.o)
 .note.GNU-stack
                0x0000000000000000        0x0 build/cooja/mtype152.a(rpl-dag-root.o)
 .note.GNU-stack
                0x0000000000000000        0x0 build/cooja/mtype152.a(watchdog.o)
 .note.GNU-stack
                0x0000000000000000        0x0 build/cooja/mtype152.a(int-master.o)
 .note.GNU-stack
                0x0000000000000000        0x0 build/cooja/mtype152.a(coap-timer-defa)
 .note.GNU-stack
                0x0000000000000000        0x0 build/cooja/mtype152.a(stimer.o)
 .note.GNU-stack
                0x0000000000000000        0x0 build/cooja/mtype152.a(ringbuf.o)
 .note.GNU-stack
                0x0000000000000000        0x0 build/cooja/mtype152.a(assert.o)
 .note.GNU-stack
                0x0000000000000000        0x0 build/cooja/mtype152.a(nbr-table.o)
 .note.GNU-stack
                0x0000000000000000        0x0 build/cooja/mtype152.a(link-stats.o)
 .note.GNU-stack
                0x0000000000000000        0x0 build/cooja/mtype152.a(mac-sequence.o)
 .note.GNU-stack
                0x0000000000000000        0x0 build/cooja/mtype152.a(mac.o)
 .note.GNU-stack
                0x0000000000000000        0x0 build/cooja/mtype152.a(framer-802154.o)
 .note.GNU-stack
                0x0000000000000000        0x0 build/cooja/mtype152.a(frame802154.o)
 .note.GNU-stack
                0x0000000000000000        0x0 build/cooja/mtype152.a(csma-security.o)
 .note.GNU-stack
                0x0000000000000000        0x0 build/cooja/mtype152.a(uipbuf.o)
 .note.GNU-stack
                0x0000000000000000        0x0 build/cooja/mtype152.a(uip-icmp6.o)
 .note.GNU-stack
                0x0000000000000000        0x0 build/cooja/mtype152.a(uip-sr.o)
 .note.GNU-stack
                0x0000000000000000        0x0 build/cooja/mtype152.a(uip-packetqueue)
 .note.GNU-stack
                0x0000000000000000        0x0 build/cooja/mtype152.a(rpl-nbr-policy.)
 .note.GNU-stack
                0x0000000000000000        0x0 build/cooja/mtype152.a(rpl-neighbor.o)
 .note.GNU-stack
                0x0000000000000000        0x0 build/cooja/mtype152.a(rpl-dag.o)
 .note.GNU-stack
                0x0000000000000000        0x0 build/cooja/mtype152.a(rpl-timers.o)
 .note.GNU-stack
                0x0000000000000000        0x0 build/cooja/mtype152.a(rpl-ext-header.)
 .note.GNU-stack
                0x0000000000000000        0x0 build/cooja/mtype152.a(rpl-mrhof.o)
 .note.GNU-stack
                0x0000000000000000        0x0 /usr/lib/gcc/x86_64-linux-gnu/7/crtendS.o
 .note.GNU-stack
                0x0000000000000000        0x0 /usr/lib/gcc/x86_64-linux-gnu/7/../../../x86_64-linux-gnu/crtn.o

Memory Configuration

Name             Origin             Length             Attributes
*default*        0x0000000000000000 0xffffffffffffffff

Linker script and memory map

LOAD /usr/lib/gcc/x86_64-linux-gnu/7/../../../x86_64-linux-gnu/crti.o
LOAD /usr/lib/gcc/x86_64-linux-gnu/7/crtbeginS.o
LOAD node.o
LOAD build/cooja/mtype152.o
LOAD build/cooja/mtype152.a
LOAD /usr/lib/gcc/x86_64-linux-gnu/7/libgcc.a
LOAD /usr/lib/gcc/x86_64-linux-gnu/7/libgcc_s.so
START GROUP
LOAD /usr/lib/gcc/x86_64-linux-gnu/7/libgcc_s.so.1
LOAD /usr/lib/gcc/x86_64-linux-gnu/7/libgcc.a
END GROUP
LOAD /usr/lib/gcc/x86_64-linux-gnu/7/../../../x86_64-linux-gnu/libc.so
START GROUP
LOAD /lib/x86_64-linux-gnu/libc.so.6
LOAD /usr/lib/x86_64-linux-gnu/libc_nonshared.a
LOAD /lib/x86_64-linux-gnu/ld-linux-x86-64.so.2
END GROUP
LOAD /usr/lib/gcc/x86_64-linux-gnu/7/libgcc.a
LOAD /usr/lib/gcc/x86_64-linux-gnu/7/libgcc_s.so
START GROUP
LOAD /usr/lib/gcc/x86_64-linux-gnu/7/libgcc_s.so.1
LOAD /usr/lib/gcc/x86_64-linux-gnu/7/libgcc.a
END GROUP
LOAD /usr/lib/gcc/x86_64-linux-gnu/7/crtendS.o
LOAD /usr/lib/gcc/x86_64-linux-gnu/7/../../../x86_64-linux-gnu/crtn.o
                0x00000000000001c8                . = (SEGMENT_START ("text-segment", 0x0) + SIZEOF_HEADERS)

.note.gnu.build-id
                0x00000000000001c8       0x24
 *(.note.gnu.build-id)
 .note.gnu.build-id
                0x00000000000001c8       0x24 /usr/lib/gcc/x86_64-linux-gnu/7/../../../x86_64-linux-gnu/crti.o

.hash
 *(.hash)

.gnu.hash       0x00000000000001f0     0x1598
 *(.gnu.hash)
 .gnu.hash      0x00000000000001f0     0x1598 /usr/lib/gcc/x86_64-linux-gnu/7/../../../x86_64-linux-gnu/crti.o

.dynsym         0x0000000000001788     0x4650
 *(.dynsym)
 .dynsym        0x0000000000001788     0x4650 /usr/lib/gcc/x86_64-linux-gnu/7/../../../x86_64-linux-gnu/crti.o

.dynstr         0x0000000000005dd8     0x3681
 *(.dynstr)
 .dynstr        0x0000000000005dd8     0x3681 /usr/lib/gcc/x86_64-linux-gnu/7/../../../x86_64-linux-gnu/crti.o

.gnu.version    0x000000000000945a      0x5dc
 *(.gnu.version)
 .gnu.version   0x000000000000945a      0x5dc /usr/lib/gcc/x86_64-linux-gnu/7/../../../x86_64-linux-gnu/crti.o

.gnu.version_d  0x0000000000009a38        0x0
 *(.gnu.version_d)
 .gnu.version_d
                0x0000000000009a38        0x0 /usr/lib/gcc/x86_64-linux-gnu/7/../../../x86_64-linux-gnu/crti.o

.gnu.version_r  0x0000000000009a38       0x40
 *(.gnu.version_r)
 .gnu.version_r
                0x0000000000009a38       0x40 /usr/lib/gcc/x86_64-linux-gnu/7/../../../x86_64-linux-gnu/crti.o

.rela.dyn       0x0000000000009a78     0x20b8
 *(.rela.init)
 *(.rela.text .rela.text.* .rela.gnu.linkonce.t.*)
 .rela.text     0x0000000000009a78        0x0 /usr/lib/gcc/x86_64-linux-gnu/7/../../../x86_64-linux-gnu/crti.o
 *(.rela.fini)
 *(.rela.rodata .rela.rodata.* .rela.gnu.linkonce.r.*)
 *(.rela.data .rela.data.* .rela.gnu.linkonce.d.*)
 .rela.data.rel.local
                0x0000000000009a78      0x858 /usr/lib/gcc/x86_64-linux-gnu/7/../../../x86_64-linux-gnu/crti.o
 .rela.data.rel.ro
                0x000000000000a2d0      0x288 /usr/lib/gcc/x86_64-linux-gnu/7/../../../x86_64-linux-gnu/crti.o
 .rela.data.rel
                0x000000000000a558      0x3a8 /usr/lib/gcc/x86_64-linux-gnu/7/../../../x86_64-linux-gnu/crti.o
 .rela.data.rel.ro.local
                0x000000000000a900      0x5e8 /usr/lib/gcc/x86_64-linux-gnu/7/../../../x86_64-linux-gnu/crti.o
 *(.rela.tdata .rela.tdata.* .rela.gnu.linkonce.td.*)
 *(.rela.tbss .rela.tbss.* .rela.gnu.linkonce.tb.*)
 *(.rela.ctors)
 *(.rela.dtors)
 *(.rela.got)
 .rela.got      0x000000000000aee8      0xc18 /usr/lib/gcc/x86_64-linux-gnu/7/../../../x86_64-linux-gnu/crti.o
 *(.rela.bss .rela.bss.* .rela.gnu.linkonce.b.*)
 *(.rela.ldata .rela.ldata.* .rela.gnu.linkonce.l.*)
 *(.rela.lbss .rela.lbss.* .rela.gnu.linkonce.lb.*)
 *(.rela.lrodata .rela.lrodata.* .rela.gnu.linkonce.lr.*)
 *(.rela.ifunc)
 .rela.ifunc    0x000000000000bb00        0x0 /usr/lib/gcc/x86_64-linux-gnu/7/../../../x86_64-linux-gnu/crti.o
 .rela.fini_array
                0x000000000000bb00       0x18 /usr/lib/gcc/x86_64-linux-gnu/7/../../../x86_64-linux-gnu/crti.o
 .rela.init_array
                0x000000000000bb18       0x18 /usr/lib/gcc/x86_64-linux-gnu/7/../../../x86_64-linux-gnu/crti.o

.rela.plt       0x000000000000bb30     0x2508
 *(.rela.plt)
 .rela.plt      0x000000000000bb30     0x2508 /usr/lib/gcc/x86_64-linux-gnu/7/../../../x86_64-linux-gnu/crti.o
 *(.rela.iplt)

.init           0x000000000000e038       0x17
 *(SORT_NONE(.init))
 .init          0x000000000000e038       0x12 /usr/lib/gcc/x86_64-linux-gnu/7/../../../x86_64-linux-gnu/crti.o
                0x000000000000e038                _init
 .init          0x000000000000e04a        0x5 /usr/lib/gcc/x86_64-linux-gnu/7/../../../x86_64-linux-gnu/crtn.o

.plt            0x000000000000e050     0x18c0
 *(.plt)
 .plt           0x000000000000e050     0x18c0 /usr/lib/gcc/x86_64-linux-gnu/7/../../../x86_64-linux-gnu/crti.o
 *(.iplt)

.plt.got        0x000000000000f910       0x18
 *(.plt.got)
 .plt.got       0x000000000000f910       0x18 /usr/lib/gcc/x86_64-linux-gnu/7/../../../x86_64-linux-gnu/crti.o

.plt.sec
 *(.plt.sec)

.text           0x000000000000f930    0x1ca95
 *(.text.unlikely .text.*_unlikely .text.unlikely.*)
 *(.text.exit .text.exit.*)
 *(.text.startup .text.startup.*)
 *(.text.hot .text.hot.*)
 *(.text .stub .text.* .gnu.linkonce.t.*)
 .text          0x000000000000f930        0x0 /usr/lib/gcc/x86_64-linux-gnu/7/../../../x86_64-linux-gnu/crti.o
 .text          0x000000000000f930       0xda /usr/lib/gcc/x86_64-linux-gnu/7/crtbeginS.o
 .text          0x000000000000fa0a      0x342 node.o
                0x000000000000fa0a                client_chunk_handler
                0x000000000000fac3                measure_temperature
 .text          0x000000000000fd4c      0x354 build/cooja/mtype152.o
                0x000000000000fdf8                platform_init_stage_one
                0x000000000000fe09                platform_init_stage_two
                0x000000000000fe1a                platform_init_stage_three
                0x000000000000fe2b                platform_main_loop
                0x000000000000fec1                Java_org_contikios_cooja_corecomm_Lib18_init
                0x000000000000ff04                Java_org_contikios_cooja_corecomm_Lib18_getMemory
                0x000000000000ff5c                Java_org_contikios_cooja_corecomm_Lib18_setMemory
                0x000000000000ffe9                Java_org_contikios_cooja_corecomm_Lib18_tick
                0x0000000000010072                Java_org_contikios_cooja_corecomm_Lib18_setReferenceAddress
 .text          0x00000000000100a0       0x89 build/cooja/mtype152.a(simEnvChange.o)
                0x00000000000100a0                doActionsBeforeTick
                0x00000000000100e4                doActionsAfterTick
 .text          0x0000000000010129       0x9f build/cooja/mtype152.a(cooja_mt.o)
                0x0000000000010129                cooja_mt_start
                0x0000000000010165                cooja_mt_exec
                0x00000000000101a4                cooja_mt_yield
 .text          0x00000000000101c8       0xfe build/cooja/mtype152.a(cooja_mtarch.o)
                0x00000000000101c8                cooja_mtarch_start
                0x0000000000010267                cooja_sw
                0x0000000000010290                cooja_mtarch_exec
                0x00000000000102ba                cooja_mtarch_yield
 .text          0x00000000000102c6       0xb4 build/cooja/mtype152.a(rtimer-arch.o)
                0x00000000000102c6                rtimer_arch_init
                0x00000000000102e8                rtimer_arch_schedule
                0x000000000001030e                rtimer_arch_next
                0x000000000001031e                rtimer_arch_pending
                0x000000000001032d                rtimer_arch_check
                0x000000000001036a                rtimer_arch_now
 .text          0x000000000001037a       0xba build/cooja/mtype152.a(beep.o)
                0x000000000001037a                beep_alarm
                0x0000000000010391                beep_beep
                0x00000000000103a5                beep
                0x00000000000103b6                beep_down
                0x00000000000103ca                beep_on
                0x00000000000103db                beep_off
                0x00000000000103ec                beep_spinup
                0x00000000000103fd                beep_quick
                0x0000000000010411                beep_long
 .text          0x0000000000010434       0x69 build/cooja/mtype152.a(leds-arch.o)
                0x000000000001044b                leds_arch_init
 .text          0x000000000001049d       0x39 build/cooja/mtype152.a(moteid.o)
 .text          0x00000000000104d6       0xe5 build/cooja/mtype152.a(pir-sensor.o)
 .text          0x00000000000105bb      0x175 build/cooja/mtype152.a(rs232.o)
                0x00000000000105bb                rs232_init
                0x00000000000105c2                rs232_set_speed
                0x00000000000105ce                rs232_set_input
                0x00000000000105e4                rs232_send
                0x000000000001060b                rs232_print
                0x0000000000010632                slip_arch_writeb
 .text          0x0000000000010730       0xe5 build/cooja/mtype152.a(vib-sensor.o)
 .text          0x0000000000010815       0x57 build/cooja/mtype152.a(clock.o)
                0x0000000000010815                clock_init
                0x000000000001081c                clock_time
                0x000000000001082c                clock_seconds
                0x0000000000010854                clock_delay
 .text          0x000000000001086c      0x30e build/cooja/mtype152.a(cooja-log.o)
                0x000000000001086c                simlog_char
                0x00000000000108c5                simlog
                0x0000000000010964                log_message
                0x000000000001099d                log_set_putchar_with_slip
                0x00000000000109b0                log_putchar
                0x0000000000010a30                log_puts
                0x0000000000010a59                log_printf
 .text          0x0000000000010b7a      0x373 build/cooja/mtype152.a(cfs-cooja.o)
                0x0000000000010b7a                cfs_open
                0x0000000000010bf3                cfs_close
                0x0000000000010c04                cfs_read
                0x0000000000010cc8                cfs_write
                0x0000000000010dd7                cfs_seek
                0x0000000000010e82                cfs_remove
                0x0000000000010eae                cfs_opendir
                0x0000000000010ec1                cfs_readdir
                0x0000000000010ed4                cfs_closedir
 .text          0x0000000000010eed      0x730 build/cooja/mtype152.a(cooja-radio.o)
                0x0000000000010f3c                radio_set_channel
                0x0000000000010f52                radio_set_txpower
                0x0000000000010f6b                radio_signal_strength_last
                0x0000000000010f7a                radio_signal_strength_current
                0x0000000000010f89                radio_LQI
 .text          0x000000000001161d      0x125 build/cooja/mtype152.a(eeprom.o)
                0x000000000001161d                eeprom_init
                0x0000000000011624                eeprom_read
                0x00000000000116ac                eeprom_write
 .text          0x0000000000011742       0x27 build/cooja/mtype152.a(random.o)
                0x0000000000011742                random_init
                0x000000000001175e                random_rand
 .text          0x0000000000011769      0x33f build/cooja/mtype152.a(sensors.o)
                0x00000000000117ae                sensors_first
                0x00000000000117be                sensors_next
                0x00000000000117e9                sensors_changed
                0x0000000000011832                sensors_find
 .text          0x0000000000011aa8      0x386 build/cooja/mtype152.a(leds.o)
                0x0000000000011aa8                leds_init
                0x0000000000011aef                leds_single_on
                0x0000000000011b58                leds_single_off
                0x0000000000011bc1                leds_single_toggle
                0x0000000000011bf5                leds_on
                0x0000000000011c81                leds_off
                0x0000000000011d0d                leds_toggle
                0x0000000000011d64                leds_set
                0x0000000000011d89                leds_get
 .text          0x0000000000011e2e      0x3ce build/cooja/mtype152.a(gpio-hal-arch.o)
                0x0000000000011e2e                gpio_hal_arch_register_pin_callback
                0x0000000000011ece                gpio_hal_arch_init
                0x0000000000011f17                gpio_hal_arch_no_port_interrupt_enable
                0x0000000000011f60                gpio_hal_arch_no_port_interrupt_disable
                0x0000000000011fa9                gpio_hal_arch_no_port_pin_cfg_set
                0x0000000000011fdb                gpio_hal_arch_no_port_pin_cfg_get
                0x000000000001200b                gpio_hal_arch_no_port_pin_set_input
                0x000000000001201a                gpio_hal_arch_no_port_pin_set_output
                0x0000000000012029                gpio_hal_arch_no_port_set_pin
                0x0000000000012049                gpio_hal_arch_no_port_clear_pin
                0x0000000000012069                gpio_hal_arch_no_port_read_pin
                0x0000000000012093                gpio_hal_arch_no_port_write_pin
                0x00000000000120b9                gpio_hal_arch_no_port_set_pins
                0x0000000000012103                gpio_hal_arch_no_port_clear_pins
                0x000000000001214d                gpio_hal_arch_no_port_read_pins
                0x0000000000012198                gpio_hal_arch_no_port_write_pins
 .text          0x00000000000121fc       0x94 build/cooja/mtype152.a(buttons.o)
 .text          0x0000000000012290      0x195 build/cooja/mtype152.a(temperature.o)
 .text          0x0000000000012425      0x22e build/cooja/mtype152.a(alarm.o)
 .text          0x0000000000012653      0x2dd build/cooja/mtype152.a(coap-blocking-a)
                0x0000000000012653                coap_blocking_request_callback
                0x000000000001268a                coap_blocking_request
 .text          0x0000000000012930      0xd12 build/cooja/mtype152.a(coap-engine.o)
                0x00000000000129ff                coap_add_handler
                0x0000000000012a24                coap_remove_handler
                0x0000000000012a49                coap_call_handlers
                0x0000000000012b7f                coap_receive
                0x00000000000131ea                coap_engine_init
                0x0000000000013243                coap_activate_resource
                0x000000000001330d                coap_get_first_resource
                0x0000000000013322                coap_get_next_resource
 .text          0x0000000000013642      0x373 build/cooja/mtype152.a(coap-res-well-k)
 .text          0x00000000000139b5      0xa65 build/cooja/mtype152.a(coap-observe.o)
                0x0000000000013aff                coap_remove_observer
                0x0000000000013b37                coap_remove_observer_by_client
                0x0000000000013ba9                coap_remove_observer_by_token
                0x0000000000013c53                coap_remove_observer_by_uri
                0x0000000000013d0c                coap_remove_observer_by_mid
                0x0000000000013d92                coap_notify_observers
                0x0000000000013db2                coap_notify_observers_sub
                0x000000000001425a                coap_observe_handler
                0x00000000000143a7                coap_has_observers
 .text          0x000000000001441a      0x856 build/cooja/mtype152.a(coap-uip.o)
                0x000000000001441a                coap_endpoint_log
                0x00000000000144a6                coap_endpoint_print
                0x0000000000014532                coap_endpoint_snprint
                0x00000000000146b7                coap_endpoint_copy
                0x00000000000146fb                coap_endpoint_cmp
                0x0000000000014844                coap_endpoint_parse
                0x0000000000014a6a                coap_endpoint_is_secure
                0x0000000000014a7f                coap_endpoint_is_connected
                0x0000000000014ac1                coap_endpoint_connect
                0x0000000000014ae3                coap_endpoint_disconnect
                0x0000000000014aee                coap_databuf
                0x0000000000014afe                coap_transport_init
                0x0000000000014b56                coap_sendto
 .text          0x0000000000014c70      0x30d build/cooja/mtype152.a(coap-timer.o)
                0x0000000000014d7e                coap_timer_stop
                0x0000000000014db3                coap_timer_set
                0x0000000000014de9                coap_timer_reset
                0x0000000000014e1f                coap_timer_time_to_next_expiration
                0x0000000000014e74                coap_timer_run
                0x0000000000014f38                coap_timer_init
 .text          0x0000000000014f7d      0x319 build/cooja/mtype152.a(coap-transactio)
                0x000000000001500b                coap_new_transaction
                0x000000000001507b                coap_send_transaction
                0x00000000000151ef                coap_clear_transaction
                0x000000000001523e                coap_get_transaction_by_mid
 .text          0x0000000000015296     0x236e build/cooja/mtype152.a(coap.o)
                0x0000000000015965                coap_init_connection
                0x0000000000015978                coap_get_mid
                0x0000000000015996                coap_init_message
                0x00000000000159e8                coap_serialize_message
                0x0000000000016170                coap_parse_message
                0x000000000001690d                coap_get_query_variable
                0x0000000000016965                coap_get_post_variable
                0x00000000000169bb                coap_set_status_code
                0x00000000000169e9                coap_set_token
                0x0000000000016a44                coap_get_header_content_format
                0x0000000000016a88                coap_set_header_content_format
                0x0000000000016abc                coap_get_header_accept
                0x0000000000016b03                coap_set_header_accept
                0x0000000000016b3a                coap_get_header_max_age
                0x0000000000016b7f                coap_set_header_max_age
                0x0000000000016bb0                coap_get_header_etag
                0x0000000000016bf8                coap_set_header_etag
                0x0000000000016c64                coap_get_header_if_match
                0x0000000000016cb2                coap_set_header_if_match
                0x0000000000016d2a                coap_get_header_if_none_match
                0x0000000000016d51                coap_set_header_if_none_match
                0x0000000000016d75                coap_get_header_proxy_uri
                0x0000000000016dba                coap_set_header_proxy_uri
                0x0000000000016e08                coap_get_header_uri_host
                0x0000000000016e4d                coap_set_header_uri_host
                0x0000000000016e9b                coap_get_header_uri_path
                0x0000000000016ee6                coap_set_header_uri_path
                0x0000000000016f4f                coap_get_header_uri_query
                0x0000000000016f9a                coap_set_header_uri_query
                0x0000000000017003                coap_get_header_location_path
                0x0000000000017048                coap_set_header_location_path
                0x0000000000017103                coap_get_header_location_query
                0x000000000001714e                coap_set_header_location_query
                0x00000000000171b7                coap_get_header_observe
                0x00000000000171fc                coap_set_header_observe
                0x0000000000017230                coap_get_header_block2
                0x00000000000172ce                coap_set_header_block2
                0x000000000001735a                coap_get_header_block1
                0x00000000000173f8                coap_set_header_block1
                0x000000000001747f                coap_get_header_size2
                0x00000000000174c2                coap_set_header_size2
                0x00000000000174f6                coap_get_header_size1
                0x0000000000017539                coap_set_header_size1
                0x000000000001756d                coap_get_payload
                0x00000000000175b9                coap_set_payload
 .text          0x0000000000017604      0x3a8 build/cooja/mtype152.a(contiki-main.o)
                0x0000000000017604                main
 .text          0x00000000000179ac       0xb3 build/cooja/mtype152.a(autostart.o)
                0x00000000000179ac                autostart_start
                0x0000000000017a08                autostart_exit
 .text          0x0000000000017a5f      0x421 build/cooja/mtype152.a(ctimer.o)
                0x0000000000017bbd                ctimer_init
                0x0000000000017bee                ctimer_set
                0x0000000000017c2e                ctimer_set_with_process
                0x0000000000017ce4                ctimer_reset
                0x0000000000017d51                ctimer_restart
                0x0000000000017dbe                ctimer_stop
                0x0000000000017e18                ctimer_expired
 .text          0x0000000000017e80      0x4a9 build/cooja/mtype152.a(log.o)
                0x0000000000017e80                log_6addr
                0x0000000000017edf                log_6addr_compact_snprint
                0x0000000000017fb6                log_6addr_compact
                0x0000000000018015                log_lladdr
                0x0000000000018092                log_lladdr_compact
                0x0000000000018109                log_set_level
                0x000000000001820f                log_get_level
                0x00000000000182c2                log_level_to_str
 .text          0x0000000000018329       0x19 build/cooja/mtype152.a(energest.o)
                0x0000000000018329                energest_init
                0x0000000000018330                energest_flush
                0x0000000000018337                energest_get_total_time
 .text          0x0000000000018342      0x540 build/cooja/mtype152.a(etimer.o)
                0x00000000000185e2                etimer_request_poll
                0x000000000001868c                etimer_set
                0x00000000000186be                etimer_reset_with_new_interval
                0x00000000000186f5                etimer_reset
                0x000000000001871c                etimer_restart
                0x0000000000018743                etimer_adjust
                0x0000000000018770                etimer_expired
                0x000000000001878b                etimer_expiration_time
                0x00000000000187a7                etimer_start_time
                0x00000000000187b8                etimer_pending
                0x00000000000187ce                etimer_next_expiration_time
                0x00000000000187eb                etimer_stop
 .text          0x0000000000018882       0x32 build/cooja/mtype152.a(node-id.o)
                0x0000000000018882                node_id_init
 .text          0x00000000000188b4       0xf6 build/cooja/mtype152.a(rtimer.o)
                0x00000000000188b4                rtimer_init
                0x00000000000188c0                rtimer_set
                0x000000000001893d                rtimer_run_next
 .text          0x00000000000189aa      0x641 build/cooja/mtype152.a(process.o)
                0x00000000000189aa                process_alloc_event
                0x00000000000189c0                process_start
                0x0000000000018c25                process_exit
                0x0000000000018c4d                process_init
                0x0000000000018e3d                process_run
                0x0000000000018e6e                process_nevents
                0x0000000000018e8a                process_post
                0x0000000000018f4e                process_post_synch
                0x0000000000018f98                process_poll
                0x0000000000018fd1                process_is_running
 .text          0x0000000000018feb       0xf3 build/cooja/mtype152.a(timer.o)
                0x0000000000018feb                timer_set
                0x0000000000019019                timer_reset
                0x0000000000019051                timer_restart
                0x000000000001906f                timer_expired
                0x00000000000190ac                timer_remaining
 .text          0x00000000000190de      0x367 build/cooja/mtype152.a(list.o)
                0x00000000000190de                list_init
                0x00000000000190f4                list_head
                0x0000000000019105                list_copy
                0x0000000000019122                list_tail
                0x0000000000019167                list_add
                0x00000000000191c7                list_push
                0x0000000000019206                list_chop
                0x000000000001928f                list_pop
                0x00000000000192c5                list_remove
                0x000000000001934d                list_length
                0x0000000000019384                list_insert
                0x00000000000193e3                list_item_next
                0x0000000000019402                list_contains
 .text          0x0000000000019445      0x206 build/cooja/mtype152.a(memb.o)
                0x0000000000019445                memb_init
                0x00000000000194a4                memb_alloc
                0x000000000001951a                memb_free
                0x00000000000195a9                memb_inmemb
                0x00000000000195fc                memb_numfree
 .text          0x000000000001964b      0x4b0 build/cooja/mtype152.a(button-hal.o)
                0x00000000000197ee                button_hal_get_by_id
                0x0000000000019838                button_hal_get_by_index
                0x000000000001986b                button_hal_get_state
                0x00000000000198ca                button_hal_init
 .text          0x0000000000019afb      0x217 build/cooja/mtype152.a(serial-line.o)
                0x0000000000019afb                serial_line_input_byte
                0x0000000000019cdf                serial_line_init
 .text          0x0000000000019d12      0x164 build/cooja/mtype152.a(gpio-hal.o)
                0x0000000000019d12                gpio_hal_register_handler
                0x0000000000019d37                gpio_hal_event_handler
                0x0000000000019d9d                gpio_hal_init
                0x0000000000019db8                gpio_hal_arch_port_toggle_pin
                0x0000000000019deb                gpio_hal_arch_port_toggle_pins
                0x0000000000019e18                gpio_hal_arch_no_port_toggle_pin
                0x0000000000019e4e                gpio_hal_arch_no_port_toggle_pins
 .text          0x0000000000019e76      0x330 build/cooja/mtype152.a(queuebuf.o)
                0x0000000000019e87                queuebuf_init
                0x0000000000019ea6                queuebuf_numfree
                0x0000000000019eb8                queuebuf_new_from_packetbuf
                0x0000000000019f61                queuebuf_update_attr_from_packetbuf
                0x0000000000019fa0                queuebuf_update_from_packetbuf
                0x0000000000019ff8                queuebuf_free
                0x000000000001a047                queuebuf_to_packetbuf
                0x000000000001a0b9                queuebuf_dataptr
                0x000000000001a0f9                queuebuf_datalen
                0x000000000001a125                queuebuf_addr
                0x000000000001a168                queuebuf_attr
                0x000000000001a19f                queuebuf_debug_print
 .text          0x000000000001a1a6      0x458 build/cooja/mtype152.a(packetbuf.o)
                0x000000000001a1a6                packetbuf_clear
                0x000000000001a1d0                packetbuf_copyfrom
                0x000000000001a226                packetbuf_copyto
                0x000000000001a2c9                packetbuf_hdralloc
                0x000000000001a354                packetbuf_hdrreduce
                0x000000000001a3a0                packetbuf_set_datalen
                0x000000000001a3b8                packetbuf_dataptr
                0x000000000001a3da                packetbuf_hdrptr
                0x000000000001a3e7                packetbuf_datalen
                0x000000000001a3f4                packetbuf_hdrlen
                0x000000000001a40c                packetbuf_totlen
                0x000000000001a42b                packetbuf_remaininglen
                0x000000000001a43f                packetbuf_attr_clear
                0x000000000001a49f                packetbuf_attr_copyto
                0x000000000001a4e6                packetbuf_attr_copyfrom
                0x000000000001a52d                packetbuf_set_attr
                0x000000000001a559                packetbuf_attr
                0x000000000001a576                packetbuf_set_addr
                0x000000000001a5b8                packetbuf_addr
                0x000000000001a5de                packetbuf_holds_broadcast
 .text          0x000000000001a5fe      0x11b build/cooja/mtype152.a(netstack.o)
                0x000000000001a5fe                netstack_process_ip_callback
                0x000000000001a69b                netstack_ip_packet_processor_add
                0x000000000001a6c7                uip_ds6_ip_packet_processor_rm
                0x000000000001a6ec                netstack_init
 .text          0x000000000001a719       0x74 build/cooja/mtype152.a(linkaddr.o)
                0x000000000001a719                linkaddr_copy
                0x000000000001a736                linkaddr_cmp
                0x000000000001a768                linkaddr_set_node_addr
 .text          0x000000000001a78d      0x242 build/cooja/mtype152.a(csma.o)
 .text          0x000000000001a9cf      0xa73 build/cooja/mtype152.a(csma-output.o)
                0x000000000001b15e                csma_output_packet
                0x000000000001b417                csma_output_init
 .text          0x000000000001b442      0xe33 build/cooja/mtype152.a(uip-ds6.o)
                0x000000000001b442                uip_ds6_default_prefix
                0x000000000001b44f                uip_ds6_set_default_prefix
                0x000000000001b473                uip_ds6_init
                0x000000000001b701                uip_ds6_periodic
                0x000000000001b79f                uip_ds6_list_loop
                0x000000000001b884                uip_ds6_prefix_add
                0x000000000001b951                uip_ds6_prefix_rm
                0x000000000001b96b                uip_ds6_prefix_lookup
                0x000000000001b9be                uip_ds6_is_addr_onlink
                0x000000000001ba4e                uip_ds6_addr_add
                0x000000000001bb8f                uip_ds6_addr_rm
                0x000000000001bc43                uip_ds6_addr_lookup
                0x000000000001bc91                uip_ds6_get_link_local
                0x000000000001bd32                uip_ds6_get_global
                0x000000000001bdd3                uip_ds6_maddr_add
                0x000000000001be48                uip_ds6_maddr_rm
                0x000000000001be62                uip_ds6_maddr_lookup
                0x000000000001beb3                uip_ds6_aaddr_add
                0x000000000001bf28                uip_ds6_aaddr_rm
                0x000000000001bf42                uip_ds6_aaddr_lookup
                0x000000000001bf93                uip_ds6_select_src
                0x000000000001c119                uip_ds6_set_addr_iid
                0x000000000001c14e                uip_ds6_set_lladdr_from_iid
                0x000000000001c181                get_match_length
                0x000000000001c22b                uip_ds6_compute_reachable_time
 .text          0x000000000001c275      0x13c build/cooja/mtype152.a(uip-udp-packet.)
                0x000000000001c275                uip_udp_packet_send
                0x000000000001c2f0                uip_udp_packet_sendto
 .text          0x000000000001c3b1      0x39e build/cooja/mtype152.a(uip-ds6-route.o)
                0x000000000001c406                uip_ds6_route_init
                0x000000000001c428                uip_ds6_route_nexthop
                0x000000000001c437                uip_ds6_route_head
                0x000000000001c442                uip_ds6_route_next
                0x000000000001c451                uip_ds6_route_is_nexthop
                0x000000000001c460                uip_ds6_route_num_routes
                0x000000000001c46b                uip_ds6_route_lookup
                0x000000000001c47a                uip_ds6_route_add
                0x000000000001c492                uip_ds6_route_rm
                0x000000000001c49d                uip_ds6_route_rm_by_nexthop
                0x000000000001c4a8                uip_ds6_defrt_head
                0x000000000001c4bd                uip_ds6_defrt_add
                0x000000000001c576                uip_ds6_defrt_rm
                0x000000000001c5e5                uip_ds6_defrt_lookup
                0x000000000001c658                uip_ds6_defrt_choose
                0x000000000001c6d7                uip_ds6_defrt_periodic
 .text          0x000000000001c74f      0x830 build/cooja/mtype152.a(tcpip.o)
                0x000000000001c77b                tcpip_output
                0x000000000001c807                udp_attach
                0x000000000001c831                udp_new
                0x000000000001c888                udp_broadcast_new
                0x000000000001ca25                tcpip_input
                0x000000000001cbe8                tcpip_ipv6_output
                0x000000000001ce3e                tcpip_poll_udp
                0x000000000001ce68                tcpip_uipcall
 .text          0x000000000001cf7f     0x1679 build/cooja/mtype152.a(uip6.o)
                0x000000000001d03f                uip_chksum
                0x000000000001d121                uip_icmp6chksum
                0x000000000001d131                uip_udpchksum
                0x000000000001d141                uip_init
                0x000000000001d1a3                uip_remove_ext_hdr
                0x000000000001d2a0                uip_udp_new
                0x000000000001d630                uip_process
                0x000000000001e487                uip_htons
                0x000000000001e4a6                uip_htonl
                0x000000000001e4ea                uip_send
 .text          0x000000000001e5f8      0x3e1 build/cooja/mtype152.a(uip-ds6-nbr.o)
                0x000000000001e5f8                uip_ds6_neighbors_init
                0x000000000001e61d                uip_ds6_nbr_add
                0x000000000001e6b7                uip_ds6_nbr_rm
                0x000000000001e710                uip_ds6_nbr_update_ll
                0x000000000001e814                uip_ds6_nbr_get_ipaddr
                0x000000000001e830                uip_ds6_nbr_get_ll
                0x000000000001e854                uip_ds6_nbr_num
                0x000000000001e8a2                uip_ds6_nbr_head
                0x000000000001e8b7                uip_ds6_nbr_next
                0x000000000001e8db                uip_ds6_nbr_lookup
                0x000000000001e940                uip_ds6_nbr_ll_lookup
                0x000000000001e964                uip_ds6_nbr_ipaddr_from_lladdr
                0x000000000001e994                uip_ds6_nbr_lladdr_from_ipaddr
                0x000000000001e9cc                uip_ds6_link_callback
 .text          0x000000000001e9d9      0x826 build/cooja/mtype152.a(uip-nd6.o)
                0x000000000001f1ec                uip_nd6_init
 .text          0x000000000001f1ff     0x3380 build/cooja/mtype152.a(sicslowpan.o)
                0x000000000001f9c8                netstack_sniffer_add
                0x000000000001f9de                netstack_sniffer_remove
                0x0000000000022550                sicslowpan_init
                0x0000000000022573                sicslowpan_get_last_rssi
 .text          0x000000000002257f      0x590 build/cooja/mtype152.a(uiplib.o)
                0x000000000002257f                uiplib_ip6addrconv
                0x0000000000022761                uiplib_ip4addrconv
                0x000000000002282f                uiplib_ipaddr_print
                0x000000000002288e                uiplib_ipaddr_snprint
 .text          0x0000000000022b0f      0x629 build/cooja/mtype152.a(rpl.o)
                0x0000000000022b0f                rpl_lollipop_greater_than
                0x0000000000022b6f                rpl_get_global_address
                0x0000000000022d0b                rpl_link_callback
                0x0000000000022d71                rpl_has_joined
                0x0000000000022da0                rpl_is_reachable
                0x0000000000022e3e                rpl_reset_prefix
                0x0000000000022eb1                rpl_set_prefix_from_addr
                0x0000000000022fbf                rpl_set_prefix
                0x0000000000023115                rpl_set_leaf_only
                0x000000000002312b                rpl_get_leaf_only
 .text          0x0000000000023138     0x1696 build/cooja/mtype152.a(rpl-icmp6.o)
                0x00000000000232bc                rpl_icmp6_update_nbr_table
                0x0000000000023369                rpl_icmp6_dis_output
                0x0000000000023a78                rpl_icmp6_dio_output
                0x000000000002439d                rpl_icmp6_dao_output
                0x0000000000024705                rpl_icmp6_dao_ack_output
                0x0000000000024797                rpl_icmp6_init
 .text          0x00000000000247ce      0x33f build/cooja/mtype152.a(rpl-dag-root.o)
                0x00000000000247ce                rpl_dag_root_print_links
                0x0000000000024934                rpl_dag_root_set_prefix
                0x000000000002496c                rpl_dag_root_start
                0x0000000000024ad1                rpl_dag_root_is_root
 .text          0x0000000000024b0d       0x35 build/cooja/mtype152.a(watchdog.o)
                0x0000000000024b0d                watchdog_init
                0x0000000000024b14                watchdog_start
                0x0000000000024b1b                watchdog_periodic
                0x0000000000024b34                watchdog_stop
                0x0000000000024b3b                watchdog_reboot
 .text          0x0000000000024b42       0x51 build/cooja/mtype152.a(int-master.o)
                0x0000000000024b42                int_master_enable
                0x0000000000024b53                int_master_read_and_disable
                0x0000000000024b6f                int_master_status_set
                0x0000000000024b82                int_master_is_enabled
 .text          0x0000000000024b93      0x1ce build/cooja/mtype152.a(coap-timer-defa)
 .text          0x0000000000024d61      0x11a build/cooja/mtype152.a(stimer.o)
                0x0000000000024d61                stimer_set
                0x0000000000024d8f                stimer_reset
                0x0000000000024dc7                stimer_restart
                0x0000000000024de5                stimer_expired
                0x0000000000024e26                stimer_remaining
                0x0000000000024e58                stimer_elapsed
 .text          0x0000000000024e7b      0x189 build/cooja/mtype152.a(ringbuf.o)
                0x0000000000024e7b                ringbuf_init
                0x0000000000024eb8                ringbuf_put
                0x0000000000024f43                ringbuf_get
                0x0000000000024fbd                ringbuf_size
                0x0000000000024fd5                ringbuf_elements
 .text          0x0000000000025004       0x2d build/cooja/mtype152.a(assert.o)
                0x0000000000025004                _xassert
 .text          0x0000000000025031      0x9ac build/cooja/mtype152.a(nbr-table.o)
                0x00000000000255d9                nbr_table_register
                0x0000000000025667                nbr_table_is_registered
                0x00000000000256ba                nbr_table_head
                0x0000000000025721                nbr_table_next
                0x0000000000025797                nbr_table_add_lladdr
                0x000000000002589a                nbr_table_get_from_lladdr
                0x00000000000258f2                nbr_table_remove
                0x0000000000025942                nbr_table_lock
                0x0000000000025970                nbr_table_unlock
                0x000000000002599e                nbr_table_get_lladdr
 .text          0x00000000000259dd      0x410 build/cooja/mtype152.a(link-stats.o)
                0x00000000000259dd                link_stats_from_lladdr
                0x0000000000025a01                link_stats_get_lladdr
                0x0000000000025a25                link_stats_is_fresh
                0x0000000000025a6f                guess_etx_from_rssi
                0x0000000000025af0                link_stats_packet_sent
                0x0000000000025c2e                link_stats_input_callback
                0x0000000000025d5b                link_stats_reset
                0x0000000000025db2                link_stats_init
 .text          0x0000000000025ded      0x1da build/cooja/mtype152.a(mac-sequence.o)
                0x0000000000025ded                mac_sequence_is_duplicate
                0x0000000000025ece                mac_sequence_register_seqno
 .text          0x0000000000025fc7       0x33 build/cooja/mtype152.a(mac.o)
                0x0000000000025fc7                mac_call_sent_callback
 .text          0x0000000000025ffa      0x442 build/cooja/mtype152.a(framer-802154.o)
                0x0000000000026191                framer_802154_setup_params
 .text          0x000000000002643c      0xc84 build/cooja/mtype152.a(frame802154.o)
                0x000000000002646a                frame802154_get_pan_id
                0x0000000000026477                frame802154_set_pan_id
                0x000000000002648f                frame802154_has_panid
                0x000000000002666a                frame802154_check_dest_panid
                0x0000000000026705                frame802154_is_broadcast_addr
                0x0000000000026758                frame802154_extract_linkaddr
                0x00000000000269ee                frame802154_hdrlen
                0x0000000000026a69                frame802154_create_fcf
                0x0000000000026b37                frame802154_create
                0x0000000000026cdd                frame802154_parse_fcf
                0x0000000000026dd0                frame802154_parse
 .text          0x00000000000270c0       0x35 build/cooja/mtype152.a(csma-security.o)
                0x00000000000270c0                csma_security_create_frame
                0x00000000000270e2                csma_security_parse_frame
 .text          0x00000000000270f5      0x55f build/cooja/mtype152.a(uipbuf.o)
                0x00000000000270f5                uipbuf_clear
                0x0000000000027123                uipbuf_add_ext_hdr
                0x00000000000271b7                uipbuf_set_len
                0x00000000000271e5                uipbuf_set_len_field
                0x0000000000027214                uipbuf_get_len_field
                0x000000000002723b                uipbuf_get_next_header
                0x000000000002738e                uipbuf_get_last_header
                0x0000000000027423                uipbuf_search_header
                0x00000000000274ee                uipbuf_get_attr
                0x000000000002751b                uipbuf_set_attr
                0x0000000000027557                uipbuf_set_default_attr
                0x0000000000027593                uipbuf_clear_attr
                0x00000000000275b4                uipbuf_set_attr_flag
                0x00000000000275d3                uipbuf_clr_attr_flag
                0x00000000000275f8                uipbuf_is_attr_flag
                0x0000000000027619                uipbuf_init
 .text          0x0000000000027654      0x88f build/cooja/mtype152.a(uip-icmp6.o)
                0x00000000000276cd                uip_icmp6_input
                0x0000000000027727                uip_icmp6_register_input_handler
                0x00000000000278b5                uip_icmp6_error_output
                0x0000000000027c18                uip_icmp6_send
                0x0000000000027e5c                uip_icmp6_echo_reply_callback_add
                0x0000000000027e9f                uip_icmp6_echo_reply_callback_rm
                0x0000000000027ec4                uip_icmp6_init
 .text          0x0000000000027ee3      0x78a build/cooja/mtype152.a(uip-sr.o)
                0x0000000000027ee3                uip_sr_num_nodes
                0x0000000000027f86                uip_sr_get_node
                0x0000000000027fea                uip_sr_is_addr_reachable
                0x00000000000280ae                uip_sr_expire_parent
                0x000000000002810d                uip_sr_update_node
                0x000000000002827a                uip_sr_init
                0x00000000000282a6                uip_sr_node_head
                0x00000000000282bb                uip_sr_node_next
                0x00000000000282d5                uip_sr_periodic
                0x00000000000283f3                uip_sr_free_all
                0x000000000002846a                uip_sr_link_snprint
 .text          0x000000000002866d      0x197 build/cooja/mtype152.a(uip-packetqueue)
                0x00000000000286a5                uip_packetqueue_new
                0x00000000000286bb                uip_packetqueue_alloc
                0x0000000000028731                uip_packetqueue_free
                0x0000000000028782                uip_packetqueue_buf
                0x00000000000287aa                uip_packetqueue_buflen
                0x00000000000287d5                uip_packetqueue_set_buflen
 .text          0x0000000000028804      0x1ea build/cooja/mtype152.a(rpl-nbr-policy.)
                0x000000000002899c                rpl_nbr_policy_find_removable
 .text          0x00000000000289ee      0xaeb build/cooja/mtype152.a(rpl-neighbor.o)
                0x0000000000028a7d                rpl_neighbor_snprint
                0x0000000000028db4                rpl_neighbor_print_list
                0x0000000000028e87                rpl_neighbor_count
                0x0000000000028f6a                rpl_neighbor_get_from_lladdr
                0x0000000000028f91                rpl_neighbor_is_acceptable_parent
                0x0000000000028fd9                rpl_neighbor_get_link_metric
                0x0000000000029021                rpl_neighbor_rank_via_nbr
                0x0000000000029069                rpl_neighbor_get_lladdr
                0x0000000000029090                rpl_neighbor_get_ipaddr
                0x00000000000290ba                rpl_neighbor_get_link_stats
                0x00000000000290e4                rpl_neighbor_is_fresh
                0x000000000002910e                rpl_neighbor_is_reachable
                0x0000000000029162                rpl_neighbor_is_parent
                0x0000000000029197                rpl_neighbor_set_preferred_parent
                0x000000000002924a                rpl_neighbor_remove_all
                0x00000000000292ac                rpl_neighbor_get_from_ipaddr
                0x00000000000293dd                rpl_neighbor_select_best
                0x00000000000294b9                rpl_neighbor_init
 .text          0x00000000000294d9     0x1172 build/cooja/mtype152.a(rpl-dag.o)
                0x00000000000294d9                rpl_dag_state_to_str
                0x0000000000029526                rpl_dag_get_root_ipaddr
                0x000000000002956c                rpl_dag_leave
                0x0000000000029610                rpl_dag_poison_and_leave
                0x000000000002962a                rpl_dag_periodic
                0x00000000000296ea                rpl_is_addr_in_our_dag
                0x000000000002973f                rpl_get_default_instance
                0x0000000000029762                rpl_get_any_dag
                0x00000000000297c7                rpl_refresh_routes
                0x0000000000029825                rpl_global_repair
                0x00000000000298d9                rpl_local_repair
                0x0000000000029934                rpl_dag_ready_to_advertise
                0x0000000000029988                rpl_dag_update_state
                0x000000000002a223                rpl_process_dio
                0x000000000002a2be                rpl_process_dis
                0x000000000002a30b                rpl_process_dao
                0x000000000002a3b0                rpl_process_dao_ack
                0x000000000002a459                rpl_process_hbh
                0x000000000002a4b4                rpl_dag_init_root
                0x000000000002a62b                rpl_dag_init
 .text          0x000000000002a64b      0xc9b build/cooja/mtype152.a(rpl-timers.o)
                0x000000000002a64b                rpl_timers_schedule_periodic_dis
                0x000000000002a814                rpl_timers_dio_reset
                0x000000000002a98d                rpl_timers_schedule_unicast_dio
                0x000000000002ab58                rpl_timers_schedule_dao
                0x000000000002ac53                rpl_timers_schedule_dao_ack
                0x000000000002ad07                rpl_timers_notify_dao_ack
                0x000000000002ad71                get_probing_delay
                0x000000000002adba                get_probing_target
                0x000000000002affa                rpl_schedule_probing
                0x000000000002b037                rpl_schedule_probing_now
                0x000000000002b0ba                rpl_timers_unschedule_leaving
                0x000000000002b0fa                rpl_timers_schedule_leaving
                0x000000000002b14b                rpl_timers_init
                0x000000000002b1ec                rpl_timers_stop_dag_timers
                0x000000000002b275                rpl_timers_unschedule_state_update
                0x000000000002b29b                rpl_timers_schedule_state_update
 .text          0x000000000002b2e6      0xd8b build/cooja/mtype152.a(rpl-ext-header.)
                0x000000000002b2e6                rpl_ext_header_srh_get_next_hop
                0x000000000002b3f0                rpl_ext_header_srh_update
                0x000000000002ba34                rpl_ext_header_hbh_update
                0x000000000002bdcf                rpl_ext_header_update
                0x000000000002be75                rpl_ext_header_remove
 .text          0x000000000002c071      0x354 build/cooja/mtype152.a(rpl-mrhof.o)
 .text          0x000000000002c3c5        0x0 /usr/lib/gcc/x86_64-linux-gnu/7/crtendS.o
 .text          0x000000000002c3c5        0x0 /usr/lib/gcc/x86_64-linux-gnu/7/../../../x86_64-linux-gnu/crtn.o
 *(.gnu.warning)

.fini           0x000000000002c3c8        0x9
 *(SORT_NONE(.fini))
 .fini          0x000000000002c3c8        0x4 /usr/lib/gcc/x86_64-linux-gnu/7/../../../x86_64-linux-gnu/crti.o
                0x000000000002c3c8                _fini
 .fini          0x000000000002c3cc        0x5 /usr/lib/gcc/x86_64-linux-gnu/7/../../../x86_64-linux-gnu/crtn.o
                [!provide]                        PROVIDE (__etext = .)
                [!provide]                        PROVIDE (_etext = .)
                [!provide]                        PROVIDE (etext = .)

.rodata         0x000000000002c3d8      0x9a3
 *(.rodata .rodata.* .gnu.linkonce.r.*)
 .rodata        0x000000000002c3d8       0x9b node.o
 .rodata        0x000000000002c473        0x6 build/cooja/mtype152.a(leds-arch.o)
                0x000000000002c473                leds_arch_leds
 .rodata        0x000000000002c479        0x4 build/cooja/mtype152.a(pir-sensor.o)
 .rodata        0x000000000002c47d        0x6 build/cooja/mtype152.a(rs232.o)
 .rodata        0x000000000002c483        0xa build/cooja/mtype152.a(vib-sensor.o)
 *fill*         0x000000000002c48d        0x3 
 .rodata        0x000000000002c490       0x27 build/cooja/mtype152.a(cfs-cooja.o)
 *fill*         0x000000000002c4b7        0x1 
 .rodata        0x000000000002c4b8       0x68 build/cooja/mtype152.a(cooja-radio.o)
 .rodata        0x000000000002c520        0x8 build/cooja/mtype152.a(sensors.o)
 .rodata        0x000000000002c528       0x14 build/cooja/mtype152.a(buttons.o)
                0x000000000002c534                button_hal_button_count
 *fill*         0x000000000002c53c        0x4 
 .rodata        0x000000000002c540       0x99 build/cooja/mtype152.a(temperature.o)
 *fill*         0x000000000002c5d9        0x7 
 .rodata        0x000000000002c5e0       0x92 build/cooja/mtype152.a(alarm.o)
 .rodata        0x000000000002c672       0x41 build/cooja/mtype152.a(coap-engine.o)
 .rodata        0x000000000002c6b3       0x19 build/cooja/mtype152.a(coap-res-well-k)
 .rodata        0x000000000002c6cc       0x11 build/cooja/mtype152.a(coap-observe.o)
 .rodata        0x000000000002c6dd       0x35 build/cooja/mtype152.a(coap-uip.o)
 *fill*         0x000000000002c712        0x6 
 .rodata        0x000000000002c718      0x1b0 build/cooja/mtype152.a(coap.o)
 .rodata        0x000000000002c8c8      0x104 build/cooja/mtype152.a(contiki-main.o)
 .rodata        0x000000000002c9cc        0xf build/cooja/mtype152.a(ctimer.o)
 *fill*         0x000000000002c9db        0x1 
 .rodata        0x000000000002c9dc       0xc4 build/cooja/mtype152.a(log.o)
 .rodata        0x000000000002caa0        0xc build/cooja/mtype152.a(etimer.o)
 .rodata        0x000000000002caac       0x13 build/cooja/mtype152.a(button-hal.o)
 .rodata        0x000000000002cabf        0xe build/cooja/mtype152.a(serial-line.o)
 *fill*         0x000000000002cacd        0x3 
 .rodata        0x000000000002cad0        0x8 build/cooja/mtype152.a(linkaddr.o)
                0x000000000002cad0                linkaddr_null
 .rodata        0x000000000002cad8        0x5 build/cooja/mtype152.a(csma.o)
 *fill*         0x000000000002cadd        0x3 
 .rodata        0x000000000002cae0       0x2a build/cooja/mtype152.a(csma-output.o)
 *fill*         0x000000000002cb0a        0x6 
 .rodata        0x000000000002cb10       0x4d build/cooja/mtype152.a(uip-ds6-route.o)
 .rodata        0x000000000002cb5d        0xd build/cooja/mtype152.a(tcpip.o)
 .rodata        0x000000000002cb6a       0x1d build/cooja/mtype152.a(sicslowpan.o)
                0x000000000002cb6a                unc_llconf
                0x000000000002cb6e                unc_ctxconf
                0x000000000002cb72                unc_mxconf
                0x000000000002cb76                llprefix
 .rodata        0x000000000002cb87       0x2d build/cooja/mtype152.a(uiplib.o)
 .rodata        0x000000000002cbb4        0x9 build/cooja/mtype152.a(rpl.o)
 .rodata        0x000000000002cbbd       0x13 build/cooja/mtype152.a(coap-timer-defa)
 .rodata        0x000000000002cbd0       0x25 build/cooja/mtype152.a(assert.o)
 .rodata        0x000000000002cbf5       0x44 build/cooja/mtype152.a(uip-sr.o)
 *fill*         0x000000000002cc39        0x7 
 .rodata        0x000000000002cc40       0x58 build/cooja/mtype152.a(rpl-neighbor.o)
 .rodata        0x000000000002cc98       0xd7 build/cooja/mtype152.a(rpl-dag.o)
 .rodata        0x000000000002cd6f        0xc build/cooja/mtype152.a(rpl-timers.o)

.rodata1
 *(.rodata1)

.eh_frame_hdr   0x000000000002cd7c     0x19e4
 *(.eh_frame_hdr)
 .eh_frame_hdr  0x000000000002cd7c     0x19e4 node.o
                0x000000000002cd7c                __GNU_EH_FRAME_HDR
 *(.eh_frame_entry .eh_frame_entry.*)

.eh_frame       0x000000000002e760     0x6814
 *(.eh_frame)
 .eh_frame      0x000000000002e760       0x40 /usr/lib/gcc/x86_64-linux-gnu/7/../../../x86_64-linux-gnu/crti.o
 .eh_frame      0x000000000002e7a0       0x18 /usr/lib/gcc/x86_64-linux-gnu/7/../../../x86_64-linux-gnu/crti.o
                                         0x30 (size before relaxing)
 .eh_frame      0x000000000002e7b8       0x60 node.o
                                         0x78 (size before relaxing)
 .eh_frame      0x000000000002e818      0x178 build/cooja/mtype152.o
                                        0x190 (size before relaxing)
 .eh_frame      0x000000000002e990       0x40 build/cooja/mtype152.a(simEnvChange.o)
                                         0x58 (size before relaxing)
 .eh_frame      0x000000000002e9d0       0x60 build/cooja/mtype152.a(cooja_mt.o)
                                         0x78 (size before relaxing)
 .eh_frame      0x000000000002ea30       0x80 build/cooja/mtype152.a(cooja_mtarch.o)
                                         0x98 (size before relaxing)
 .eh_frame      0x000000000002eab0       0xc0 build/cooja/mtype152.a(rtimer-arch.o)
                                         0xd8 (size before relaxing)
 .eh_frame      0x000000000002eb70      0x160 build/cooja/mtype152.a(beep.o)
                                        0x178 (size before relaxing)
 .eh_frame      0x000000000002ecd0       0x80 build/cooja/mtype152.a(leds-arch.o)
                                         0x98 (size before relaxing)
 .eh_frame      0x000000000002ed50       0x40 build/cooja/mtype152.a(moteid.o)
                                         0x58 (size before relaxing)
 .eh_frame      0x000000000002ed90       0xa0 build/cooja/mtype152.a(pir-sensor.o)
                                         0xb8 (size before relaxing)
 .eh_frame      0x000000000002ee30      0x100 build/cooja/mtype152.a(rs232.o)
                                        0x118 (size before relaxing)
 .eh_frame      0x000000000002ef30       0xa0 build/cooja/mtype152.a(vib-sensor.o)
                                         0xb8 (size before relaxing)
 .eh_frame      0x000000000002efd0       0xc0 build/cooja/mtype152.a(clock.o)
                                         0xd8 (size before relaxing)
 .eh_frame      0x000000000002f090      0x128 build/cooja/mtype152.a(cooja-log.o)
                                        0x140 (size before relaxing)
 .eh_frame      0x000000000002f1b8      0x160 build/cooja/mtype152.a(cfs-cooja.o)
                                        0x178 (size before relaxing)
 .eh_frame      0x000000000002f318      0x340 build/cooja/mtype152.a(cooja-radio.o)
                                        0x358 (size before relaxing)
 .eh_frame      0x000000000002f658       0xa0 build/cooja/mtype152.a(eeprom.o)
                                         0xb8 (size before relaxing)
 .eh_frame      0x000000000002f6f8       0x40 build/cooja/mtype152.a(random.o)
                                         0x58 (size before relaxing)
 .eh_frame      0x000000000002f738       0xc0 build/cooja/mtype152.a(sensors.o)
                                         0xd8 (size before relaxing)
 .eh_frame      0x000000000002f7f8      0x120 build/cooja/mtype152.a(leds.o)
                                        0x138 (size before relaxing)
 .eh_frame      0x000000000002f918      0x220 build/cooja/mtype152.a(gpio-hal-arch.o)
                                        0x238 (size before relaxing)
 .eh_frame      0x000000000002fb38       0xa0 build/cooja/mtype152.a(buttons.o)
                                         0xb8 (size before relaxing)
 .eh_frame      0x000000000002fbd8       0x40 build/cooja/mtype152.a(temperature.o)
                                         0x58 (size before relaxing)
 .eh_frame      0x000000000002fc18       0x20 build/cooja/mtype152.a(alarm.o)
                                         0x38 (size before relaxing)
 .eh_frame      0x000000000002fc38       0x40 build/cooja/mtype152.a(coap-blocking-a)
                                         0x58 (size before relaxing)
 .eh_frame      0x000000000002fc78      0x220 build/cooja/mtype152.a(coap-engine.o)
                                        0x238 (size before relaxing)
 .eh_frame      0x000000000002fe98       0x20 build/cooja/mtype152.a(coap-res-well-k)
                                         0x38 (size before relaxing)
 .eh_frame      0x000000000002feb8      0x188 build/cooja/mtype152.a(coap-observe.o)
                                        0x1a0 (size before relaxing)
 .eh_frame      0x0000000000030040      0x248 build/cooja/mtype152.a(coap-uip.o)
                                        0x260 (size before relaxing)
 .eh_frame      0x0000000000030288      0x108 build/cooja/mtype152.a(coap-timer.o)
                                        0x120 (size before relaxing)
 .eh_frame      0x0000000000030390      0x100 build/cooja/mtype152.a(coap-transactio)
                                        0x118 (size before relaxing)
 .eh_frame      0x0000000000030490      0x6e8 build/cooja/mtype152.a(coap.o)
                                        0x700 (size before relaxing)
 .eh_frame      0x0000000000030b78       0x20 build/cooja/mtype152.a(contiki-main.o)
                                         0x38 (size before relaxing)
 .eh_frame      0x0000000000030b98       0x40 build/cooja/mtype152.a(autostart.o)
                                         0x58 (size before relaxing)
 .eh_frame      0x0000000000030bd8      0x100 build/cooja/mtype152.a(ctimer.o)
                                        0x118 (size before relaxing)
 .eh_frame      0x0000000000030cd8      0x100 build/cooja/mtype152.a(log.o)
                                        0x118 (size before relaxing)
 .eh_frame      0x0000000000030dd8       0x60 build/cooja/mtype152.a(energest.o)
                                         0x78 (size before relaxing)
 .eh_frame      0x0000000000030e38      0x1e0 build/cooja/mtype152.a(etimer.o)
                                        0x1f8 (size before relaxing)
 .eh_frame      0x0000000000031018       0x20 build/cooja/mtype152.a(node-id.o)
                                         0x38 (size before relaxing)
 .eh_frame      0x0000000000031038       0x60 build/cooja/mtype152.a(rtimer.o)
                                         0x78 (size before relaxing)
 .eh_frame      0x0000000000031098      0x1c8 build/cooja/mtype152.a(process.o)
                                        0x1e0 (size before relaxing)
 .eh_frame      0x0000000000031260       0xa0 build/cooja/mtype152.a(timer.o)
                                         0xb8 (size before relaxing)
 .eh_frame      0x0000000000031300      0x1a0 build/cooja/mtype152.a(list.o)
                                        0x1b8 (size before relaxing)
 .eh_frame      0x00000000000314a0       0xa0 build/cooja/mtype152.a(memb.o)
                                         0xb8 (size before relaxing)
 .eh_frame      0x0000000000031540      0x140 build/cooja/mtype152.a(button-hal.o)
                                        0x158 (size before relaxing)
 .eh_frame      0x0000000000031680       0x60 build/cooja/mtype152.a(serial-line.o)
                                         0x78 (size before relaxing)
 .eh_frame      0x00000000000316e0       0xe0 build/cooja/mtype152.a(gpio-hal.o)
                                         0xf8 (size before relaxing)
 .eh_frame      0x00000000000317c0      0x1a0 build/cooja/mtype152.a(queuebuf.o)
                                        0x1b8 (size before relaxing)
 .eh_frame      0x0000000000031960      0x288 build/cooja/mtype152.a(packetbuf.o)
                                        0x2a0 (size before relaxing)
 .eh_frame      0x0000000000031be8       0x80 build/cooja/mtype152.a(netstack.o)
                                         0x98 (size before relaxing)
 .eh_frame      0x0000000000031c68       0x60 build/cooja/mtype152.a(linkaddr.o)
                                         0x78 (size before relaxing)
 .eh_frame      0x0000000000031cc8       0xe0 build/cooja/mtype152.a(csma.o)
                                         0xf8 (size before relaxing)
 .eh_frame      0x0000000000031da8      0x1c8 build/cooja/mtype152.a(csma-output.o)
                                        0x1e0 (size before relaxing)
 .eh_frame      0x0000000000031f70      0x328 build/cooja/mtype152.a(uip-ds6.o)
                                        0x340 (size before relaxing)
 .eh_frame      0x0000000000032298       0x40 build/cooja/mtype152.a(uip-udp-packet.)
                                         0x58 (size before relaxing)
 .eh_frame      0x00000000000322d8      0x220 build/cooja/mtype152.a(uip-ds6-route.o)
                                        0x238 (size before relaxing)
 .eh_frame      0x00000000000324f8      0x248 build/cooja/mtype152.a(tcpip.o)
                                        0x260 (size before relaxing)
 .eh_frame      0x0000000000032740      0x1e8 build/cooja/mtype152.a(uip6.o)
                                        0x200 (size before relaxing)
 .eh_frame      0x0000000000032928      0x1c0 build/cooja/mtype152.a(uip-ds6-nbr.o)
                                        0x1d8 (size before relaxing)
 .eh_frame      0x0000000000032ae8       0x80 build/cooja/mtype152.a(uip-nd6.o)
                                         0x98 (size before relaxing)
 .eh_frame      0x0000000000032b68      0x2e0 build/cooja/mtype152.a(sicslowpan.o)
                                        0x2f8 (size before relaxing)
 .eh_frame      0x0000000000032e48       0x80 build/cooja/mtype152.a(uiplib.o)
                                         0x98 (size before relaxing)
 .eh_frame      0x0000000000032ec8      0x1e0 build/cooja/mtype152.a(rpl.o)
                                        0x1f8 (size before relaxing)
 .eh_frame      0x00000000000330a8      0x1c0 build/cooja/mtype152.a(rpl-icmp6.o)
                                        0x1d8 (size before relaxing)
 .eh_frame      0x0000000000033268       0xa0 build/cooja/mtype152.a(rpl-dag-root.o)
                                         0xb8 (size before relaxing)
 .eh_frame      0x0000000000033308       0xa0 build/cooja/mtype152.a(watchdog.o)
                                         0xb8 (size before relaxing)
 .eh_frame      0x00000000000333a8       0x80 build/cooja/mtype152.a(int-master.o)
                                         0x98 (size before relaxing)
 .eh_frame      0x0000000000033428       0xa0 build/cooja/mtype152.a(coap-timer-defa)
                                         0xb8 (size before relaxing)
 .eh_frame      0x00000000000334c8       0xc0 build/cooja/mtype152.a(stimer.o)
                                         0xd8 (size before relaxing)
 .eh_frame      0x0000000000033588       0xa0 build/cooja/mtype152.a(ringbuf.o)
                                         0xb8 (size before relaxing)
 .eh_frame      0x0000000000033628       0x20 build/cooja/mtype152.a(assert.o)
                                         0x38 (size before relaxing)
 .eh_frame      0x0000000000033648      0x2a0 build/cooja/mtype152.a(nbr-table.o)
                                        0x2b8 (size before relaxing)
 .eh_frame      0x00000000000338e8      0x120 build/cooja/mtype152.a(link-stats.o)
                                        0x138 (size before relaxing)
 .eh_frame      0x0000000000033a08       0x48 build/cooja/mtype152.a(mac-sequence.o)
                                         0x60 (size before relaxing)
 .eh_frame      0x0000000000033a50       0x20 build/cooja/mtype152.a(mac.o)
                                         0x38 (size before relaxing)
 .eh_frame      0x0000000000033a70       0xa8 build/cooja/mtype152.a(framer-802154.o)
                                         0xc0 (size before relaxing)
 .eh_frame      0x0000000000033b18      0x1a8 build/cooja/mtype152.a(frame802154.o)
                                        0x1c0 (size before relaxing)
 .eh_frame      0x0000000000033cc0       0x40 build/cooja/mtype152.a(csma-security.o)
                                         0x58 (size before relaxing)
 .eh_frame      0x0000000000033d00      0x200 build/cooja/mtype152.a(uipbuf.o)
                                        0x218 (size before relaxing)
 .eh_frame      0x0000000000033f00      0x148 build/cooja/mtype152.a(uip-icmp6.o)
                                        0x160 (size before relaxing)
 .eh_frame      0x0000000000034048      0x180 build/cooja/mtype152.a(uip-sr.o)
                                        0x198 (size before relaxing)
 .eh_frame      0x00000000000341c8       0xe0 build/cooja/mtype152.a(uip-packetqueue)
                                         0xf8 (size before relaxing)
 .eh_frame      0x00000000000342a8       0x80 build/cooja/mtype152.a(rpl-nbr-policy.)
                                         0x98 (size before relaxing)
 .eh_frame      0x0000000000034328      0x2d0 build/cooja/mtype152.a(rpl-neighbor.o)
                                        0x2e8 (size before relaxing)
 .eh_frame      0x00000000000345f8      0x360 build/cooja/mtype152.a(rpl-dag.o)
                                        0x378 (size before relaxing)
 .eh_frame      0x0000000000034958      0x3a8 build/cooja/mtype152.a(rpl-timers.o)
                                        0x3c0 (size before relaxing)
 .eh_frame      0x0000000000034d00      0x128 build/cooja/mtype152.a(rpl-ext-header.)
                                        0x140 (size before relaxing)
 .eh_frame      0x0000000000034e28      0x148 build/cooja/mtype152.a(rpl-mrhof.o)
                                        0x160 (size before relaxing)
 .eh_frame      0x0000000000034f70        0x4 /usr/lib/gcc/x86_64-linux-gnu/7/crtendS.o
 *(.eh_frame.*)

.gcc_except_table
 *(.gcc_except_table .gcc_except_table.*)

.gnu_extab
 *(.gnu_extab*)

.exception_ranges
 *(.exception_ranges .exception_ranges*)
                0x00000000002356b0                . = DATA_SEGMENT_ALIGN (CONSTANT (MAXPAGESIZE), CONSTANT (COMMONPAGESIZE))

.eh_frame
 *(.eh_frame)
 *(.eh_frame.*)

.gnu_extab
 *(.gnu_extab)

.gcc_except_table
 *(.gcc_except_table .gcc_except_table.*)

.exception_ranges
 *(.exception_ranges .exception_ranges*)

.tdata
 *(.tdata .tdata.* .gnu.linkonce.td.*)

.tbss
 *(.tbss .tbss.* .gnu.linkonce.tb.*)
 *(.tcommon)

.preinit_array
 *(.preinit_array)

.init_array     0x00000000002356b0        0x8
 *(SORT_BY_INIT_PRIORITY(.init_array.*) SORT_BY_INIT_PRIORITY(.ctors.*))
 *(.init_array EXCLUDE_FILE(*crtend?.o *crtend.o *crtbegin?.o *crtbegin.o) .ctors)
 .init_array    0x00000000002356b0        0x8 /usr/lib/gcc/x86_64-linux-gnu/7/crtbeginS.o

.fini_array     0x00000000002356b8        0x8
 *(SORT_BY_INIT_PRIORITY(.fini_array.*) SORT_BY_INIT_PRIORITY(.dtors.*))
 *(.fini_array EXCLUDE_FILE(*crtend?.o *crtend.o *crtbegin?.o *crtbegin.o) .dtors)
 .fini_array    0x00000000002356b8        0x8 /usr/lib/gcc/x86_64-linux-gnu/7/crtbeginS.o

.ctors
 *crtbegin.o(.ctors)
 *crtbegin?.o(.ctors)
 *(EXCLUDE_FILE(*crtend?.o *crtend.o) .ctors)
 *(SORT_BY_NAME(.ctors.*))
 *(.ctors)

.dtors
 *crtbegin.o(.dtors)
 *crtbegin?.o(.dtors)
 *(EXCLUDE_FILE(*crtend?.o *crtend.o) .dtors)
 *(SORT_BY_NAME(.dtors.*))
 *(.dtors)

.jcr
 *(.jcr)

.data.rel.ro    0x00000000002356c0      0x370
 *(.data.rel.ro.local* .gnu.linkonce.d.rel.ro.local.*)
 .data.rel.ro.local
                0x00000000002356c0       0x10 build/cooja/mtype152.a(beep.o)
                0x00000000002356c0                beep_interface
 .data.rel.ro.local
                0x00000000002356d0       0x10 build/cooja/mtype152.a(leds-arch.o)
                0x00000000002356d0                leds_interface
 .data.rel.ro.local
                0x00000000002356e0       0x10 build/cooja/mtype152.a(moteid.o)
                0x00000000002356e0                moteid_interface
 *fill*         0x00000000002356f0       0x10 
 .data.rel.ro.local
                0x0000000000235700       0x40 build/cooja/mtype152.a(pir-sensor.o)
                0x0000000000235700                pir_interface
                0x0000000000235720                pir_sensor
 .data.rel.ro.local
                0x0000000000235740       0x10 build/cooja/mtype152.a(rs232.o)
                0x0000000000235740                rs232_interface
 *fill*         0x0000000000235750       0x10 
 .data.rel.ro.local
                0x0000000000235760       0x40 build/cooja/mtype152.a(vib-sensor.o)
                0x0000000000235760                vib_interface
                0x0000000000235780                vib_sensor
 .data.rel.ro.local
                0x00000000002357a0       0x10 build/cooja/mtype152.a(clock.o)
                0x00000000002357a0                clock_interface
 .data.rel.ro.local
                0x00000000002357b0       0x10 build/cooja/mtype152.a(cooja-log.o)
                0x00000000002357b0                simlog_interface
 .data.rel.ro.local
                0x00000000002357c0       0x10 build/cooja/mtype152.a(cfs-cooja.o)
                0x00000000002357c0                cfs_interface
 *fill*         0x00000000002357d0       0x10 
 .data.rel.ro.local
                0x00000000002357e0       0x90 build/cooja/mtype152.a(cooja-radio.o)
                0x00000000002357e0                radio_interface
                0x0000000000235800                cooja_radio_driver
 .data.rel.ro.local
                0x0000000000235870       0x10 build/cooja/mtype152.a(eeprom.o)
                0x0000000000235870                eeprom_interface
 .data.rel.ro.local
                0x0000000000235880       0x40 build/cooja/mtype152.a(buttons.o)
                0x0000000000235880                button_interface
                0x00000000002358a0                button_sensor
 .data.rel.ro.local
                0x00000000002358c0       0x38 build/cooja/mtype152.a(csma.o)
                0x00000000002358c0                csma_driver
 *fill*         0x00000000002358f8        0x8 
 .data.rel.ro.local
                0x0000000000235900       0x18 build/cooja/mtype152.a(coap-timer-defa)
                0x0000000000235900                coap_timer_default_driver
 *fill*         0x0000000000235918        0x8 
 .data.rel.ro.local
                0x0000000000235920       0x18 build/cooja/mtype152.a(framer-802154.o)
                0x0000000000235920                framer_802154
 *(.data.rel.ro .data.rel.ro.* .gnu.linkonce.d.rel.ro.*)
 .data.rel.ro   0x0000000000235938        0x0 /usr/lib/gcc/x86_64-linux-gnu/7/../../../x86_64-linux-gnu/crti.o
 *fill*         0x0000000000235938        0x8 
 .data.rel.ro   0x0000000000235940       0x10 node.o
                0x0000000000235940                autostart_processes
 *fill*         0x0000000000235950       0x10 
 .data.rel.ro   0x0000000000235960       0x20 build/cooja/mtype152.a(sicslowpan.o)
                0x0000000000235960                sicslowpan_driver
 .data.rel.ro   0x0000000000235980       0xa8 build/cooja/mtype152.a(rpl.o)
                0x0000000000235980                rpl_lite_driver
 .data.rel.ro   0x0000000000235a28        0x8 build/cooja/mtype152.a(rpl-dag.o)

.dynamic        0x0000000000235a30      0x1c0
 *(.dynamic)
 .dynamic       0x0000000000235a30      0x1c0 /usr/lib/gcc/x86_64-linux-gnu/7/../../../x86_64-linux-gnu/crti.o
                0x0000000000235a30                _DYNAMIC

.got            0x0000000000235bf0      0x408
 *(.got)
 .got           0x0000000000235bf0      0x408 /usr/lib/gcc/x86_64-linux-gnu/7/../../../x86_64-linux-gnu/crti.o
 *(.igot)
                0x0000000000236fe8                . = DATA_SEGMENT_RELRO_END (., (SIZEOF (.got.plt) >= 0x18)?0x18:0x0)

.got.plt        0x0000000000236000      0xc70
 *(.got.plt)
 .got.plt       0x0000000000236000      0xc70 /usr/lib/gcc/x86_64-linux-gnu/7/../../../x86_64-linux-gnu/crti.o
                0x0000000000236000                _GLOBAL_OFFSET_TABLE_
 *(.igot.plt)

.data           0x0000000000236c80      0x928
 *(.data .data.* .gnu.linkonce.d.*)
 .data          0x0000000000236c80        0x0 /usr/lib/gcc/x86_64-linux-gnu/7/../../../x86_64-linux-gnu/crti.o
 .data          0x0000000000236c80        0x0 /usr/lib/gcc/x86_64-linux-gnu/7/crtbeginS.o
 .data.rel.local
                0x0000000000236c80        0x8 /usr/lib/gcc/x86_64-linux-gnu/7/crtbeginS.o
                0x0000000000236c80                __dso_handle
 .data          0x0000000000236c88        0x4 node.o
                0x0000000000236c88                temperatureValue
 *fill*         0x0000000000236c8c       0x14 
 .data.rel.local
                0x0000000000236ca0       0x20 node.o
                0x0000000000236ca0                node
 .data          0x0000000000236cc0        0x0 build/cooja/mtype152.o
 .data.rel      0x0000000000236cc0       0xa0 build/cooja/mtype152.o
                0x0000000000236cc0                simInterfaces
                0x0000000000236d40                sensors
 .data          0x0000000000236d60        0x0 build/cooja/mtype152.a(simEnvChange.o)
 .data          0x0000000000236d60        0x0 build/cooja/mtype152.a(cooja_mt.o)
 .data          0x0000000000236d60        0x0 build/cooja/mtype152.a(cooja_mtarch.o)
 .data          0x0000000000236d60        0x0 build/cooja/mtype152.a(rtimer-arch.o)
 .data          0x0000000000236d60        0x0 build/cooja/mtype152.a(beep.o)
 .data          0x0000000000236d60        0x0 build/cooja/mtype152.a(leds-arch.o)
 .data          0x0000000000236d60        0x0 build/cooja/mtype152.a(moteid.o)
 .data          0x0000000000236d60        0x0 build/cooja/mtype152.a(pir-sensor.o)
 .data          0x0000000000236d60        0x0 build/cooja/mtype152.a(rs232.o)
 .data          0x0000000000236d60        0x0 build/cooja/mtype152.a(vib-sensor.o)
 .data          0x0000000000236d60        0x0 build/cooja/mtype152.a(clock.o)
 .data          0x0000000000236d60        0x0 build/cooja/mtype152.a(cooja-log.o)
 .data          0x0000000000236d60        0x0 build/cooja/mtype152.a(cfs-cooja.o)
 .data          0x0000000000236d60       0x1c build/cooja/mtype152.a(cooja-radio.o)
                0x0000000000236d60                simRadioHWOn
                0x0000000000236d64                simSignalStrength
                0x0000000000236d68                simLastSignalStrength
                0x0000000000236d6c                simPower
                0x0000000000236d70                simRadioChannel
                0x0000000000236d74                simLQI
 *fill*         0x0000000000236d7c        0x4 
 .data.rel.local
                0x0000000000236d80       0x20 build/cooja/mtype152.a(cooja-radio.o)
                0x0000000000236d80                cooja_radio_process
 .data          0x0000000000236da0        0x0 build/cooja/mtype152.a(eeprom.o)
 .data          0x0000000000236da0        0x0 build/cooja/mtype152.a(random.o)
 .data          0x0000000000236da0        0x0 build/cooja/mtype152.a(sensors.o)
 .data.rel.local
                0x0000000000236da0       0x20 build/cooja/mtype152.a(sensors.o)
                0x0000000000236da0                sensors_process
 .data          0x0000000000236dc0        0x0 build/cooja/mtype152.a(leds.o)
 .data          0x0000000000236dc0        0x0 build/cooja/mtype152.a(gpio-hal-arch.o)
 .data          0x0000000000236dc0        0x1 build/cooja/mtype152.a(buttons.o)
                0x0000000000236dc0                simButtonIsActive
 *fill*         0x0000000000236dc1       0x1f 
 .data.rel.local
                0x0000000000236de0       0xb0 build/cooja/mtype152.a(buttons.o)
                0x0000000000236e80                button_hal_buttons
 .data          0x0000000000236e90        0x0 build/cooja/mtype152.a(temperature.o)
 *fill*         0x0000000000236e90       0x10 
 .data.rel.local
                0x0000000000236ea0       0x48 build/cooja/mtype152.a(temperature.o)
                0x0000000000236ea0                temperature
 .data          0x0000000000236ee8        0x0 build/cooja/mtype152.a(alarm.o)
 *fill*         0x0000000000236ee8       0x18 
 .data.rel.local
                0x0000000000236f00       0x48 build/cooja/mtype152.a(alarm.o)
                0x0000000000236f00                ledAlarm
 .data          0x0000000000236f48        0x0 build/cooja/mtype152.a(coap-blocking-a)
 .data          0x0000000000236f48        0x0 build/cooja/mtype152.a(coap-engine.o)
 .data.rel.local
                0x0000000000236f48       0x10 build/cooja/mtype152.a(coap-engine.o)
 .data          0x0000000000236f58        0x0 build/cooja/mtype152.a(coap-res-well-k)
 *fill*         0x0000000000236f58        0x8 
 .data.rel.local
                0x0000000000236f60       0x48 build/cooja/mtype152.a(coap-res-well-k)
                0x0000000000236f60                res_well_known_core
 .data          0x0000000000236fa8        0x0 build/cooja/mtype152.a(coap-observe.o)
 *fill*         0x0000000000236fa8        0x8 
 .data.rel.local
                0x0000000000236fb0       0x20 build/cooja/mtype152.a(coap-observe.o)
 .data          0x0000000000236fd0        0x0 build/cooja/mtype152.a(coap-uip.o)
 *fill*         0x0000000000236fd0       0x10 
 .data.rel.local
                0x0000000000236fe0       0x20 build/cooja/mtype152.a(coap-uip.o)
                0x0000000000236fe0                coap_engine
 .data          0x0000000000237000        0x0 build/cooja/mtype152.a(coap-timer.o)
 .data.rel.local
                0x0000000000237000        0x8 build/cooja/mtype152.a(coap-timer.o)
 .data          0x0000000000237008        0x0 build/cooja/mtype152.a(coap-transactio)
 *fill*         0x0000000000237008        0x8 
 .data.rel.local
                0x0000000000237010       0x20 build/cooja/mtype152.a(coap-transactio)
 .data          0x0000000000237030        0x0 build/cooja/mtype152.a(coap.o)
 .data.rel.local
                0x0000000000237030        0x8 build/cooja/mtype152.a(coap.o)
                0x0000000000237030                coap_error_message
 .data          0x0000000000237038        0x0 build/cooja/mtype152.a(contiki-main.o)
 .data          0x0000000000237038        0x0 build/cooja/mtype152.a(autostart.o)
 .data          0x0000000000237038        0x0 build/cooja/mtype152.a(ctimer.o)
 *fill*         0x0000000000237038        0x8 
 .data.rel.local
                0x0000000000237040       0x40 build/cooja/mtype152.a(ctimer.o)
                0x0000000000237060                ctimer_process
 .data          0x0000000000237080        0x4 build/cooja/mtype152.a(log.o)
                0x0000000000237080                curr_log_level_main
 *fill*         0x0000000000237084       0x1c 
 .data.rel      0x00000000002370a0      0x138 build/cooja/mtype152.a(log.o)
                0x00000000002370a0                all_modules
 .data          0x00000000002371d8        0x0 build/cooja/mtype152.a(energest.o)
 .data          0x00000000002371d8        0x0 build/cooja/mtype152.a(etimer.o)
 *fill*         0x00000000002371d8        0x8 
 .data.rel.local
                0x00000000002371e0       0x20 build/cooja/mtype152.a(etimer.o)
                0x00000000002371e0                etimer_process
 .data          0x0000000000237200        0x0 build/cooja/mtype152.a(node-id.o)
 .data          0x0000000000237200        0x0 build/cooja/mtype152.a(rtimer.o)
 .data          0x0000000000237200        0x0 build/cooja/mtype152.a(process.o)
 .data          0x0000000000237200        0x0 build/cooja/mtype152.a(timer.o)
 .data          0x0000000000237200        0x0 build/cooja/mtype152.a(list.o)
 .data          0x0000000000237200        0x0 build/cooja/mtype152.a(memb.o)
 .data          0x0000000000237200        0x0 build/cooja/mtype152.a(button-hal.o)
 .data.rel.local
                0x0000000000237200       0x20 build/cooja/mtype152.a(button-hal.o)
                0x0000000000237200                button_hal_process
 .data          0x0000000000237220        0x0 build/cooja/mtype152.a(serial-line.o)
 .data.rel.local
                0x0000000000237220       0x20 build/cooja/mtype152.a(serial-line.o)
                0x0000000000237220                serial_line_process
 .data          0x0000000000237240        0x0 build/cooja/mtype152.a(gpio-hal.o)
 .data.rel.local
                0x0000000000237240        0x8 build/cooja/mtype152.a(gpio-hal.o)
 .data          0x0000000000237248        0x0 build/cooja/mtype152.a(queuebuf.o)
 *fill*         0x0000000000237248        0x8 
 .data.rel.local
                0x0000000000237250       0x38 build/cooja/mtype152.a(queuebuf.o)
 .data          0x0000000000237288        0x0 build/cooja/mtype152.a(packetbuf.o)
 .data.rel.local
                0x0000000000237288        0x8 build/cooja/mtype152.a(packetbuf.o)
 .data          0x0000000000237290        0x0 build/cooja/mtype152.a(netstack.o)
 .data.rel.local
                0x0000000000237290        0x8 build/cooja/mtype152.a(netstack.o)
 .data          0x0000000000237298        0x0 build/cooja/mtype152.a(linkaddr.o)
 .data          0x0000000000237298        0x0 build/cooja/mtype152.a(csma.o)
 .data          0x0000000000237298        0x0 build/cooja/mtype152.a(csma-output.o)
 *fill*         0x0000000000237298        0x8 
 .data.rel.local
                0x00000000002372a0       0x60 build/cooja/mtype152.a(csma-output.o)
 .data          0x0000000000237300        0x0 build/cooja/mtype152.a(uip-ds6.o)
 .data          0x0000000000237300        0x0 build/cooja/mtype152.a(uip-udp-packet.)
 .data          0x0000000000237300        0x0 build/cooja/mtype152.a(uip-ds6-route.o)
 .data.rel.local
                0x0000000000237300       0x28 build/cooja/mtype152.a(uip-ds6-route.o)
 .data          0x0000000000237328        0x0 build/cooja/mtype152.a(tcpip.o)
 *fill*         0x0000000000237328       0x18 
 .data.rel.local
                0x0000000000237340       0x20 build/cooja/mtype152.a(tcpip.o)
                0x0000000000237340                tcpip_process
 .data          0x0000000000237360        0x0 build/cooja/mtype152.a(uip6.o)
 .data          0x0000000000237360        0x0 build/cooja/mtype152.a(uip-ds6-nbr.o)
 .data.rel.local
                0x0000000000237360       0x20 build/cooja/mtype152.a(uip-ds6-nbr.o)
 .data          0x0000000000237380        0x0 build/cooja/mtype152.a(uip-nd6.o)
 .data.rel.local
                0x0000000000237380       0x18 build/cooja/mtype152.a(uip-nd6.o)
 .data          0x0000000000237398        0x0 build/cooja/mtype152.a(sicslowpan.o)
 .data          0x0000000000237398        0x0 build/cooja/mtype152.a(uiplib.o)
 .data          0x0000000000237398        0x0 build/cooja/mtype152.a(rpl.o)
 .data          0x0000000000237398        0x0 build/cooja/mtype152.a(rpl-icmp6.o)
 *fill*         0x0000000000237398        0x8 
 .data.rel.local
                0x00000000002373a0       0x78 build/cooja/mtype152.a(rpl-icmp6.o)
 .data          0x0000000000237418        0x0 build/cooja/mtype152.a(rpl-dag-root.o)
 .data          0x0000000000237418        0x0 build/cooja/mtype152.a(watchdog.o)
 .data          0x0000000000237418        0x0 build/cooja/mtype152.a(int-master.o)
 .data          0x0000000000237418        0x0 build/cooja/mtype152.a(coap-timer-defa)
 *fill*         0x0000000000237418        0x8 
 .data.rel.local
                0x0000000000237420       0x20 build/cooja/mtype152.a(coap-timer-defa)
                0x0000000000237420                coap_timer_process
 .data          0x0000000000237440        0x0 build/cooja/mtype152.a(stimer.o)
 .data          0x0000000000237440        0x0 build/cooja/mtype152.a(ringbuf.o)
 .data          0x0000000000237440        0x0 build/cooja/mtype152.a(assert.o)
 .data          0x0000000000237440        0x0 build/cooja/mtype152.a(nbr-table.o)
 .data.rel.local
                0x0000000000237440       0x20 build/cooja/mtype152.a(nbr-table.o)
 .data          0x0000000000237460        0x0 build/cooja/mtype152.a(link-stats.o)
 .data.rel.local
                0x0000000000237460       0x20 build/cooja/mtype152.a(link-stats.o)
 .data          0x0000000000237480        0x0 build/cooja/mtype152.a(mac-sequence.o)
 .data          0x0000000000237480        0x0 build/cooja/mtype152.a(mac.o)
 .data          0x0000000000237480        0x0 build/cooja/mtype152.a(framer-802154.o)
 .data          0x0000000000237480        0x2 build/cooja/mtype152.a(frame802154.o)
 .data          0x0000000000237482        0x0 build/cooja/mtype152.a(csma-security.o)
 .data          0x0000000000237482        0x0 build/cooja/mtype152.a(uipbuf.o)
 .data          0x0000000000237482        0x0 build/cooja/mtype152.a(uip-icmp6.o)
 *fill*         0x0000000000237482        0xe 
 .data.rel.local
                0x0000000000237490       0x48 build/cooja/mtype152.a(uip-icmp6.o)
 .data          0x00000000002374d8        0x0 build/cooja/mtype152.a(uip-sr.o)
 *fill*         0x00000000002374d8        0x8 
 .data.rel.local
                0x00000000002374e0       0x28 build/cooja/mtype152.a(uip-sr.o)
 .data          0x0000000000237508        0x0 build/cooja/mtype152.a(uip-packetqueue)
 *fill*         0x0000000000237508        0x8 
 .data.rel.local
                0x0000000000237510       0x18 build/cooja/mtype152.a(uip-packetqueue)
 .data          0x0000000000237528        0x0 build/cooja/mtype152.a(rpl-nbr-policy.)
 .data          0x0000000000237528        0x0 build/cooja/mtype152.a(rpl-neighbor.o)
 *fill*         0x0000000000237528        0x8 
 .data.rel.local
                0x0000000000237530       0x20 build/cooja/mtype152.a(rpl-neighbor.o)
                0x0000000000237548                rpl_neighbors
 .data          0x0000000000237550        0x0 build/cooja/mtype152.a(rpl-dag.o)
 .data          0x0000000000237550        0x0 build/cooja/mtype152.a(rpl-timers.o)
 .data          0x0000000000237550        0x0 build/cooja/mtype152.a(rpl-ext-header.)
 .data          0x0000000000237550        0x0 build/cooja/mtype152.a(rpl-mrhof.o)
 *fill*         0x0000000000237550       0x10 
 .data.rel.local
                0x0000000000237560       0x48 build/cooja/mtype152.a(rpl-mrhof.o)
                0x0000000000237560                rpl_mrhof
 .data          0x00000000002375a8        0x0 /usr/lib/gcc/x86_64-linux-gnu/7/crtendS.o
 .data          0x00000000002375a8        0x0 /usr/lib/gcc/x86_64-linux-gnu/7/../../../x86_64-linux-gnu/crtn.o

.tm_clone_table
                0x00000000002375a8        0x0
 .tm_clone_table
                0x00000000002375a8        0x0 /usr/lib/gcc/x86_64-linux-gnu/7/crtbeginS.o
 .tm_clone_table
                0x00000000002375a8        0x0 /usr/lib/gcc/x86_64-linux-gnu/7/crtendS.o

.data1
 *(.data1)
                0x00000000002375a8                _edata = .
                [!provide]                        PROVIDE (edata = .)
                0x00000000002375a8                . = .
                0x00000000002375a8                __bss_start = .

.bss            0x00000000002375c0    0x19e40
 *(.dynbss)
 .dynbss        0x00000000002375c0        0x0 /usr/lib/gcc/x86_64-linux-gnu/7/../../../x86_64-linux-gnu/crti.o
 *(.bss .bss.* .gnu.linkonce.b.*)
 .bss           0x00000000002375c0        0x0 /usr/lib/gcc/x86_64-linux-gnu/7/../../../x86_64-linux-gnu/crti.o
 .bss           0x00000000002375c0        0x1 /usr/lib/gcc/x86_64-linux-gnu/7/crtbeginS.o
 *fill*         0x00000000002375c1       0x1f 
 .bss           0x00000000002375e0      0x1b0 node.o
 *fill*         0x0000000000237790       0x10 
 .bss           0x00000000002377a0     0x4040 build/cooja/mtype152.o
 .bss           0x000000000023b7e0        0x1 build/cooja/mtype152.a(simEnvChange.o)
                0x000000000023b7e0                simDontFallAsleep
 *fill*         0x000000000023b7e1        0x7 
 .bss           0x000000000023b7e8        0x8 build/cooja/mtype152.a(cooja_mt.o)
 .bss           0x000000000023b7f0        0x8 build/cooja/mtype152.a(cooja_mtarch.o)
 .bss           0x000000000023b7f8        0x0 build/cooja/mtype152.a(rtimer-arch.o)
 .bss           0x000000000023b7f8        0x0 build/cooja/mtype152.a(beep.o)
 .bss           0x000000000023b7f8        0x1 build/cooja/mtype152.a(leds-arch.o)
                0x000000000023b7f8                simLedsValue
 .bss           0x000000000023b7f9        0x0 build/cooja/mtype152.a(moteid.o)
 .bss           0x000000000023b7f9        0x1 build/cooja/mtype152.a(pir-sensor.o)
                0x000000000023b7f9                simPirValue
 *fill*         0x000000000023b7fa        0x6 
 .bss           0x000000000023b800        0x8 build/cooja/mtype152.a(rs232.o)
 .bss           0x000000000023b808        0x1 build/cooja/mtype152.a(vib-sensor.o)
                0x000000000023b808                simVibValue
 .bss           0x000000000023b809        0x0 build/cooja/mtype152.a(clock.o)
 *fill*         0x000000000023b809       0x17 
 .bss           0x000000000023b820     0x2020 build/cooja/mtype152.a(cooja-log.o)
 .bss           0x000000000023d840      0xfc0 build/cooja/mtype152.a(cfs-cooja.o)
                0x000000000023d840                simCFSData
                0x000000000023e7e0                simCFSSize
                0x000000000023e7e4                simCFSChanged
                0x000000000023e7e8                simCFSRead
                0x000000000023e7ec                simCFSWritten
 .bss           0x000000000023e800       0x2c build/cooja/mtype152.a(cooja-radio.o)
                0x000000000023e800                simReceiving
                0x000000000023e804                simInSize
                0x000000000023e808                simLastPacketTimestamp
                0x000000000023e810                simOutSize
 .bss           0x000000000023e82c        0xc build/cooja/mtype152.a(eeprom.o)
                0x000000000023e82c                simEEPROMChanged
                0x000000000023e830                simEEPROMRead
                0x000000000023e834                simEEPROMWritten
 .bss           0x000000000023e838        0x0 build/cooja/mtype152.a(random.o)
 .bss           0x000000000023e838        0xc build/cooja/mtype152.a(sensors.o)
 .bss           0x000000000023e844        0x0 build/cooja/mtype152.a(leds.o)
 *fill*         0x000000000023e844       0x1c 
 .bss           0x000000000023e860       0x40 build/cooja/mtype152.a(gpio-hal-arch.o)
 .bss           0x000000000023e8a0        0x0 build/cooja/mtype152.a(buttons.o)
 .bss           0x000000000023e8a0        0x0 build/cooja/mtype152.a(temperature.o)
 .bss           0x000000000023e8a0        0x0 build/cooja/mtype152.a(alarm.o)
 .bss           0x000000000023e8a0        0x0 build/cooja/mtype152.a(coap-blocking-a)
 .bss           0x000000000023e8a0      0x220 build/cooja/mtype152.a(coap-engine.o)
 .bss           0x000000000023eac0        0x0 build/cooja/mtype152.a(coap-res-well-k)
 .bss           0x000000000023eac0      0x160 build/cooja/mtype152.a(coap-observe.o)
 .bss           0x000000000023ec20       0x24 build/cooja/mtype152.a(coap-uip.o)
 *fill*         0x000000000023ec44        0x4 
 .bss           0x000000000023ec48        0x9 build/cooja/mtype152.a(coap-timer.o)
 *fill*         0x000000000023ec51        0xf 
 .bss           0x000000000023ec60      0x3c8 build/cooja/mtype152.a(coap-transactio)
 .bss           0x000000000023f028        0x6 build/cooja/mtype152.a(coap.o)
                0x000000000023f028                coap_status_code
 .bss           0x000000000023f02e        0x0 build/cooja/mtype152.a(contiki-main.o)
 .bss           0x000000000023f02e        0x0 build/cooja/mtype152.a(autostart.o)
 *fill*         0x000000000023f02e        0x2 
 .bss           0x000000000023f030        0x9 build/cooja/mtype152.a(ctimer.o)
 *fill*         0x000000000023f039        0x3 
 .bss           0x000000000023f03c       0x2c build/cooja/mtype152.a(log.o)
                0x000000000023f03c                curr_log_level_rpl
                0x000000000023f040                curr_log_level_tcpip
                0x000000000023f044                curr_log_level_ipv6
                0x000000000023f048                curr_log_level_6lowpan
                0x000000000023f04c                curr_log_level_nullnet
                0x000000000023f050                curr_log_level_mac
                0x000000000023f054                curr_log_level_framer
                0x000000000023f058                curr_log_level_6top
                0x000000000023f05c                curr_log_level_coap
                0x000000000023f060                curr_log_level_snmp
                0x000000000023f064                curr_log_level_lwm2m
 .bss           0x000000000023f068        0x0 build/cooja/mtype152.a(energest.o)
 .bss           0x000000000023f068       0x10 build/cooja/mtype152.a(etimer.o)
 .bss           0x000000000023f078        0x2 build/cooja/mtype152.a(node-id.o)
                0x000000000023f078                node_id
 *fill*         0x000000000023f07a        0x6 
 .bss           0x000000000023f080        0x8 build/cooja/mtype152.a(rtimer.o)
 *fill*         0x000000000023f088       0x18 
 .bss           0x000000000023f0a0      0x321 build/cooja/mtype152.a(process.o)
                0x000000000023f0a0                process_list
                0x000000000023f0a8                process_current
 .bss           0x000000000023f3c1        0x0 build/cooja/mtype152.a(timer.o)
 .bss           0x000000000023f3c1        0x0 build/cooja/mtype152.a(list.o)
 .bss           0x000000000023f3c1        0x0 build/cooja/mtype152.a(memb.o)
 *fill*         0x000000000023f3c1        0xf 
 .bss           0x000000000023f3d0       0x28 build/cooja/mtype152.a(button-hal.o)
 *fill*         0x000000000023f3f8        0x8 
 .bss           0x000000000023f400      0x140 build/cooja/mtype152.a(serial-line.o)
 .bss           0x000000000023f540        0x8 build/cooja/mtype152.a(gpio-hal.o)
 *fill*         0x000000000023f548       0x18 
 .bss           0x000000000023f560     0x2d80 build/cooja/mtype152.a(queuebuf.o)
 .bss           0x00000000002422e0       0xa0 build/cooja/mtype152.a(packetbuf.o)
 .bss           0x0000000000242380        0x8 build/cooja/mtype152.a(netstack.o)
 .bss           0x0000000000242388        0x0 build/cooja/mtype152.a(linkaddr.o)
 .bss           0x0000000000242388        0x0 build/cooja/mtype152.a(csma.o)
 *fill*         0x0000000000242388       0x18 
 .bss           0x00000000002423a0      0xd8a build/cooja/mtype152.a(csma-output.o)
 *fill*         0x000000000024312a        0x6 
 .bss           0x0000000000243130       0x40 build/cooja/mtype152.a(uip-ds6.o)
 .bss           0x0000000000243170        0x0 build/cooja/mtype152.a(uip-udp-packet.)
 *fill*         0x0000000000243170       0x10 
 .bss           0x0000000000243180       0x80 build/cooja/mtype152.a(uip-ds6-route.o)
 .bss           0x0000000000243200       0x20 build/cooja/mtype152.a(tcpip.o)
 .bss           0x0000000000243220        0x8 build/cooja/mtype152.a(uip6.o)
                0x0000000000243220                uip_ext_bitmap
                0x0000000000243222                uip_ext_len
                0x0000000000243224                uip_last_proto
 *fill*         0x0000000000243228       0x18 
 .bss           0x0000000000243240     0x2580 build/cooja/mtype152.a(uip-ds6-nbr.o)
 .bss           0x00000000002457c0       0x20 build/cooja/mtype152.a(uip-nd6.o)
 .bss           0x00000000002457e0      0x738 build/cooja/mtype152.a(sicslowpan.o)
 .bss           0x0000000000245f18        0x0 build/cooja/mtype152.a(uiplib.o)
 .bss           0x0000000000245f18        0x1 build/cooja/mtype152.a(rpl.o)
 .bss           0x0000000000245f19        0x0 build/cooja/mtype152.a(rpl-icmp6.o)
 *fill*         0x0000000000245f19        0x7 
 .bss           0x0000000000245f20       0x11 build/cooja/mtype152.a(rpl-dag-root.o)
 .bss           0x0000000000245f31        0x0 build/cooja/mtype152.a(watchdog.o)
 *fill*         0x0000000000245f31        0x3 
 .bss           0x0000000000245f34        0x4 build/cooja/mtype152.a(int-master.o)
 *fill*         0x0000000000245f38        0x8 
 .bss           0x0000000000245f40       0x48 build/cooja/mtype152.a(coap-timer-defa)
 .bss           0x0000000000245f88        0x0 build/cooja/mtype152.a(stimer.o)
 .bss           0x0000000000245f88        0x0 build/cooja/mtype152.a(ringbuf.o)
 .bss           0x0000000000245f88        0x0 build/cooja/mtype152.a(assert.o)
 *fill*         0x0000000000245f88       0x18 
 .bss           0x0000000000245fa0     0x16e8 build/cooja/mtype152.a(nbr-table.o)
 *fill*         0x0000000000247688       0x18 
 .bss           0x00000000002476a0     0x12c0 build/cooja/mtype152.a(link-stats.o)
 .bss           0x0000000000248960      0x180 build/cooja/mtype152.a(mac-sequence.o)
 .bss           0x0000000000248ae0        0x0 build/cooja/mtype152.a(mac.o)
 .bss           0x0000000000248ae0        0x2 build/cooja/mtype152.a(framer-802154.o)
 .bss           0x0000000000248ae2        0x0 build/cooja/mtype152.a(frame802154.o)
 .bss           0x0000000000248ae2        0x0 build/cooja/mtype152.a(csma-security.o)
 *fill*         0x0000000000248ae2        0x6 
 .bss           0x0000000000248ae8       0x1c build/cooja/mtype152.a(uipbuf.o)
 *fill*         0x0000000000248b04        0xc 
 .bss           0x0000000000248b10       0x20 build/cooja/mtype152.a(uip-icmp6.o)
 *fill*         0x0000000000248b30       0x10 
 .bss           0x0000000000248b40     0x3040 build/cooja/mtype152.a(uip-sr.o)
 .bss           0x000000000024bb80      0xad0 build/cooja/mtype152.a(uip-packetqueue)
 .bss           0x000000000024c650       0x12 build/cooja/mtype152.a(rpl-nbr-policy.)
 *fill*         0x000000000024c662       0x1e 
 .bss           0x000000000024c680     0x12c0 build/cooja/mtype152.a(rpl-neighbor.o)
 .bss           0x000000000024d940        0x0 build/cooja/mtype152.a(rpl-dag.o)
 .bss           0x000000000024d940       0x80 build/cooja/mtype152.a(rpl-timers.o)
 .bss           0x000000000024d9c0        0x0 build/cooja/mtype152.a(rpl-ext-header.)
 .bss           0x000000000024d9c0        0x0 build/cooja/mtype152.a(rpl-mrhof.o)
 .bss           0x000000000024d9c0        0x0 /usr/lib/gcc/x86_64-linux-gnu/7/crtendS.o
 .bss           0x000000000024d9c0        0x0 /usr/lib/gcc/x86_64-linux-gnu/7/../../../x86_64-linux-gnu/crtn.o
 *(COMMON)
 COMMON         0x000000000024d9c0        0xc build/cooja/mtype152.o
                0x000000000024d9c0                referenceVar
                0x000000000024d9c8                sensors_flags
 *fill*         0x000000000024d9cc        0x4 
 COMMON         0x000000000024d9d0       0x10 build/cooja/mtype152.a(simEnvChange.o)
                0x000000000024d9d0                simEtimerPending
                0x000000000024d9d4                simProcessRunValue
                0x000000000024d9d8                simEtimerNextExpirationTime
 COMMON         0x000000000024d9e0       0x18 build/cooja/mtype152.a(rtimer-arch.o)
                0x000000000024d9e0                simRtimerPending
                0x000000000024d9e8                simRtimerCurrentTicks
                0x000000000024d9f0                simRtimerNextExpirationTime
 COMMON         0x000000000024d9f8        0x1 build/cooja/mtype152.a(beep.o)
                0x000000000024d9f8                simBeeped
 *fill*         0x000000000024d9f9        0x3 
 COMMON         0x000000000024d9fc        0xc build/cooja/mtype152.a(moteid.o)
                0x000000000024d9fc                simRandomSeed
                0x000000000024da00                simMoteIDChanged
                0x000000000024da04                simMoteID
 COMMON         0x000000000024da08        0x2 build/cooja/mtype152.a(pir-sensor.o)
                0x000000000024da08                simPirIsActive
                0x000000000024da09                simPirChanged
 *fill*         0x000000000024da0a       0x16 
 COMMON         0x000000000024da20      0x820 build/cooja/mtype152.a(rs232.o)
                0x000000000024da20                simSerialReceivingFlag
                0x000000000024da24                simSerialReceivingLength
                0x000000000024da40                simSerialReceivingData
 COMMON         0x000000000024e240        0x2 build/cooja/mtype152.a(vib-sensor.o)
                0x000000000024e240                simVibChanged
                0x000000000024e241                simVibIsActive
 *fill*         0x000000000024e242        0x6 
 COMMON         0x000000000024e248        0x8 build/cooja/mtype152.a(clock.o)
                0x000000000024e248                simCurrentTime
 *fill*         0x000000000024e250       0x10 
 COMMON         0x000000000024e260     0x2020 build/cooja/mtype152.a(cooja-log.o)
                0x000000000024e260                simLoggedLength
                0x000000000024e264                simLoggedFlag
                0x000000000024e280                simLoggedData
 COMMON         0x0000000000250280       0xfd build/cooja/mtype152.a(cooja-radio.o)
                0x0000000000250280                simOutDataBuffer
                0x0000000000250300                simInDataBuffer
 *fill*         0x000000000025037d        0x3 
 COMMON         0x0000000000250380      0x400 build/cooja/mtype152.a(eeprom.o)
                0x0000000000250380                simEEPROMData
 COMMON         0x0000000000250780        0x1 build/cooja/mtype152.a(sensors.o)
                0x0000000000250780                sensors_event
 COMMON         0x0000000000250781        0x2 build/cooja/mtype152.a(buttons.o)
                0x0000000000250781                simButtonIsDown
                0x0000000000250782                simButtonChanged
 *fill*         0x0000000000250783       0x1d 
 COMMON         0x00000000002507a0       0xf0 build/cooja/mtype152.a(contiki-main.o)
                0x00000000002507a0                eb_per_time_source
                0x00000000002507e0                unicast_per_neighbor_rpl_storing
                0x0000000000250820                unicast_per_neighbor_rpl_ns
                0x0000000000250860                default_common
 COMMON         0x0000000000250890        0x3 build/cooja/mtype152.a(button-hal.o)
                0x0000000000250890                button_hal_periodic_event
                0x0000000000250891                button_hal_press_event
                0x0000000000250892                button_hal_release_event
 COMMON         0x0000000000250893        0x1 build/cooja/mtype152.a(serial-line.o)
                0x0000000000250893                serial_line_event_message
 *fill*         0x0000000000250894        0xc 
 COMMON         0x00000000002508a0       0x30 build/cooja/mtype152.a(packetbuf.o)
                0x00000000002508a0                packetbuf_attrs
                0x00000000002508c0                packetbuf_addrs
 COMMON         0x00000000002508d0        0x8 build/cooja/mtype152.a(linkaddr.o)
                0x00000000002508d0                linkaddr_node_addr
 *fill*         0x00000000002508d8        0x8 
 COMMON         0x00000000002508e0      0x1c1 build/cooja/mtype152.a(uip-ds6.o)
                0x00000000002508e0                uip_ds6_prefix_list
                0x0000000000250940                uip_ds6_timer_periodic
                0x0000000000250960                uip_ds6_netif_addr_list_offset
                0x0000000000250980                uip_ds6_if
                0x0000000000250a90                uip_ds6_timer_ra
                0x0000000000250aa0                uip_ds6_addr_size
 COMMON         0x0000000000250aa1        0x1 build/cooja/mtype152.a(tcpip.o)
                0x0000000000250aa1                tcpip_event
 *fill*         0x0000000000250aa2       0x1e 
 COMMON         0x0000000000250ac0      0x690 build/cooja/mtype152.a(uip6.o)
                0x0000000000250ac0                uip_slen
                0x0000000000250ac8                uip_lladdr
                0x0000000000250ad0                uip_appdata
                0x0000000000250ad8                uip_flags
                0x0000000000250ae0                uip_aligned_buf
                0x0000000000250fe0                uip_len
                0x0000000000250fe8                uip_sappdata
                0x0000000000251000                uip_udp_conns
                0x0000000000251140                uip_udp_conn
                0x0000000000251148                uip_conn
 COMMON         0x0000000000251150       0x10 build/cooja/mtype152.a(rpl.o)
                0x0000000000251150                rpl_multicast_addr
 COMMON         0x0000000000251160       0x40 build/cooja/mtype152.a(link-stats.o)
                0x0000000000251160                periodic_timer
 COMMON         0x00000000002511a0      0x260 build/cooja/mtype152.a(rpl-dag.o)
                0x00000000002511a0                curr_instance
                0x0000000000251400                . = ALIGN ((. != 0x0)?0x8:0x1)

.lbss
 *(.dynlbss)
 *(.lbss .lbss.* .gnu.linkonce.lb.*)
 *(LARGE_COMMON)
                0x0000000000251400                . = ALIGN (0x8)
                0x0000000000251400                . = SEGMENT_START ("ldata-segment", .)

.lrodata
 *(.lrodata .lrodata.* .gnu.linkonce.lr.*)

.ldata          0x0000000000651400        0x0
 *(.ldata .ldata.* .gnu.linkonce.l.*)
                0x0000000000651400                . = ALIGN ((. != 0x0)?0x8:0x1)
                0x0000000000651400                . = ALIGN (0x8)
                0x0000000000651400                _end = .
                [!provide]                        PROVIDE (end = .)
                0x0000000000651400                . = DATA_SEGMENT_END (.)

.stab
 *(.stab)

.stabstr
 *(.stabstr)

.stab.excl
 *(.stab.excl)

.stab.exclstr
 *(.stab.exclstr)

.stab.index
 *(.stab.index)

.stab.indexstr
 *(.stab.indexstr)

.comment        0x0000000000000000       0x29
 *(.comment)
 .comment       0x0000000000000000       0x29 /usr/lib/gcc/x86_64-linux-gnu/7/crtbeginS.o
                                         0x2a (size before relaxing)
 .comment       0x0000000000000029       0x2a node.o
 .comment       0x0000000000000029       0x2a build/cooja/mtype152.o
 .comment       0x0000000000000029       0x2a build/cooja/mtype152.a(simEnvChange.o)
 .comment       0x0000000000000029       0x2a build/cooja/mtype152.a(cooja_mt.o)
 .comment       0x0000000000000029       0x2a build/cooja/mtype152.a(cooja_mtarch.o)
 .comment       0x0000000000000029       0x2a build/cooja/mtype152.a(rtimer-arch.o)
 .comment       0x0000000000000029       0x2a build/cooja/mtype152.a(beep.o)
 .comment       0x0000000000000029       0x2a build/cooja/mtype152.a(leds-arch.o)
 .comment       0x0000000000000029       0x2a build/cooja/mtype152.a(moteid.o)
 .comment       0x0000000000000029       0x2a build/cooja/mtype152.a(pir-sensor.o)
 .comment       0x0000000000000029       0x2a build/cooja/mtype152.a(rs232.o)
 .comment       0x0000000000000029       0x2a build/cooja/mtype152.a(vib-sensor.o)
 .comment       0x0000000000000029       0x2a build/cooja/mtype152.a(clock.o)
 .comment       0x0000000000000029       0x2a build/cooja/mtype152.a(cooja-log.o)
 .comment       0x0000000000000029       0x2a build/cooja/mtype152.a(cfs-cooja.o)
 .comment       0x0000000000000029       0x2a build/cooja/mtype152.a(cooja-radio.o)
 .comment       0x0000000000000029       0x2a build/cooja/mtype152.a(eeprom.o)
 .comment       0x0000000000000029       0x2a build/cooja/mtype152.a(random.o)
 .comment       0x0000000000000029       0x2a build/cooja/mtype152.a(sensors.o)
 .comment       0x0000000000000029       0x2a build/cooja/mtype152.a(leds.o)
 .comment       0x0000000000000029       0x2a build/cooja/mtype152.a(gpio-hal-arch.o)
 .comment       0x0000000000000029       0x2a build/cooja/mtype152.a(buttons.o)
 .comment       0x0000000000000029       0x2a build/cooja/mtype152.a(temperature.o)
 .comment       0x0000000000000029       0x2a build/cooja/mtype152.a(alarm.o)
 .comment       0x0000000000000029       0x2a build/cooja/mtype152.a(coap-blocking-a)
 .comment       0x0000000000000029       0x2a build/cooja/mtype152.a(coap-engine.o)
 .comment       0x0000000000000029       0x2a build/cooja/mtype152.a(coap-res-well-k)
 .comment       0x0000000000000029       0x2a build/cooja/mtype152.a(coap-observe.o)
 .comment       0x0000000000000029       0x2a build/cooja/mtype152.a(coap-uip.o)
 .comment       0x0000000000000029       0x2a build/cooja/mtype152.a(coap-timer.o)
 .comment       0x0000000000000029       0x2a build/cooja/mtype152.a(coap-transactio)
 .comment       0x0000000000000029       0x2a build/cooja/mtype152.a(coap.o)
 .comment       0x0000000000000029       0x2a build/cooja/mtype152.a(contiki-main.o)
 .comment       0x0000000000000029       0x2a build/cooja/mtype152.a(autostart.o)
 .comment       0x0000000000000029       0x2a build/cooja/mtype152.a(ctimer.o)
 .comment       0x0000000000000029       0x2a build/cooja/mtype152.a(log.o)
 .comment       0x0000000000000029       0x2a build/cooja/mtype152.a(energest.o)
 .comment       0x0000000000000029       0x2a build/cooja/mtype152.a(etimer.o)
 .comment       0x0000000000000029       0x2a build/cooja/mtype152.a(node-id.o)
 .comment       0x0000000000000029       0x2a build/cooja/mtype152.a(rtimer.o)
 .comment       0x0000000000000029       0x2a build/cooja/mtype152.a(process.o)
 .comment       0x0000000000000029       0x2a build/cooja/mtype152.a(timer.o)
 .comment       0x0000000000000029       0x2a build/cooja/mtype152.a(list.o)
 .comment       0x0000000000000029       0x2a build/cooja/mtype152.a(memb.o)
 .comment       0x0000000000000029       0x2a build/cooja/mtype152.a(button-hal.o)
 .comment       0x0000000000000029       0x2a build/cooja/mtype152.a(serial-line.o)
 .comment       0x0000000000000029       0x2a build/cooja/mtype152.a(gpio-hal.o)
 .comment       0x0000000000000029       0x2a build/cooja/mtype152.a(queuebuf.o)
 .comment       0x0000000000000029       0x2a build/cooja/mtype152.a(packetbuf.o)
 .comment       0x0000000000000029       0x2a build/cooja/mtype152.a(netstack.o)
 .comment       0x0000000000000029       0x2a build/cooja/mtype152.a(linkaddr.o)
 .comment       0x0000000000000029       0x2a build/cooja/mtype152.a(csma.o)
 .comment       0x0000000000000029       0x2a build/cooja/mtype152.a(csma-output.o)
 .comment       0x0000000000000029       0x2a build/cooja/mtype152.a(uip-ds6.o)
 .comment       0x0000000000000029       0x2a build/cooja/mtype152.a(uip-udp-packet.)
 .comment       0x0000000000000029       0x2a build/cooja/mtype152.a(uip-ds6-route.o)
 .comment       0x0000000000000029       0x2a build/cooja/mtype152.a(tcpip.o)
 .comment       0x0000000000000029       0x2a build/cooja/mtype152.a(uip6.o)
 .comment       0x0000000000000029       0x2a build/cooja/mtype152.a(uip-ds6-nbr.o)
 .comment       0x0000000000000029       0x2a build/cooja/mtype152.a(uip-nd6.o)
 .comment       0x0000000000000029       0x2a build/cooja/mtype152.a(sicslowpan.o)
 .comment       0x0000000000000029       0x2a build/cooja/mtype152.a(uiplib.o)
 .comment       0x0000000000000029       0x2a build/cooja/mtype152.a(rpl.o)
 .comment       0x0000000000000029       0x2a build/cooja/mtype152.a(rpl-icmp6.o)
 .comment       0x0000000000000029       0x2a build/cooja/mtype152.a(rpl-dag-root.o)
 .comment       0x0000000000000029       0x2a build/cooja/mtype152.a(watchdog.o)
 .comment       0x0000000000000029       0x2a build/cooja/mtype152.a(int-master.o)
 .comment       0x0000000000000029       0x2a build/cooja/mtype152.a(coap-timer-defa)
 .comment       0x0000000000000029       0x2a build/cooja/mtype152.a(stimer.o)
 .comment       0x0000000000000029       0x2a build/cooja/mtype152.a(ringbuf.o)
 .comment       0x0000000000000029       0x2a build/cooja/mtype152.a(assert.o)
 .comment       0x0000000000000029       0x2a build/cooja/mtype152.a(nbr-table.o)
 .comment       0x0000000000000029       0x2a build/cooja/mtype152.a(link-stats.o)
 .comment       0x0000000000000029       0x2a build/cooja/mtype152.a(mac-sequence.o)
 .comment       0x0000000000000029       0x2a build/cooja/mtype152.a(mac.o)
 .comment       0x0000000000000029       0x2a build/cooja/mtype152.a(framer-802154.o)
 .comment       0x0000000000000029       0x2a build/cooja/mtype152.a(frame802154.o)
 .comment       0x0000000000000029       0x2a build/cooja/mtype152.a(csma-security.o)
 .comment       0x0000000000000029       0x2a build/cooja/mtype152.a(uipbuf.o)
 .comment       0x0000000000000029       0x2a build/cooja/mtype152.a(uip-icmp6.o)
 .comment       0x0000000000000029       0x2a build/cooja/mtype152.a(uip-sr.o)
 .comment       0x0000000000000029       0x2a build/cooja/mtype152.a(uip-packetqueue)
 .comment       0x0000000000000029       0x2a build/cooja/mtype152.a(rpl-nbr-policy.)
 .comment       0x0000000000000029       0x2a build/cooja/mtype152.a(rpl-neighbor.o)
 .comment       0x0000000000000029       0x2a build/cooja/mtype152.a(rpl-dag.o)
 .comment       0x0000000000000029       0x2a build/cooja/mtype152.a(rpl-timers.o)
 .comment       0x0000000000000029       0x2a build/cooja/mtype152.a(rpl-ext-header.)
 .comment       0x0000000000000029       0x2a build/cooja/mtype152.a(rpl-mrhof.o)
 .comment       0x0000000000000029       0x2a /usr/lib/gcc/x86_64-linux-gnu/7/crtendS.o

.debug
 *(.debug)

.line
 *(.line)

.debug_srcinfo
 *(.debug_srcinfo)

.debug_sfnames
 *(.debug_sfnames)

.debug_aranges  0x0000000000000000     0x1080
 *(.debug_aranges)
 .debug_aranges
                0x0000000000000000       0x30 node.o
 .debug_aranges
                0x0000000000000030       0x30 build/cooja/mtype152.o
 .debug_aranges
                0x0000000000000060       0x30 build/cooja/mtype152.a(simEnvChange.o)
 .debug_aranges
                0x0000000000000090       0x30 build/cooja/mtype152.a(cooja_mt.o)
 .debug_aranges
                0x00000000000000c0       0x30 build/cooja/mtype152.a(cooja_mtarch.o)
 .debug_aranges
                0x00000000000000f0       0x30 build/cooja/mtype152.a(rtimer-arch.o)
 .debug_aranges
                0x0000000000000120       0x30 build/cooja/mtype152.a(beep.o)
 .debug_aranges
                0x0000000000000150       0x30 build/cooja/mtype152.a(leds-arch.o)
 .debug_aranges
                0x0000000000000180       0x30 build/cooja/mtype152.a(moteid.o)
 .debug_aranges
                0x00000000000001b0       0x30 build/cooja/mtype152.a(pir-sensor.o)
 .debug_aranges
                0x00000000000001e0       0x30 build/cooja/mtype152.a(rs232.o)
 .debug_aranges
                0x0000000000000210       0x30 build/cooja/mtype152.a(vib-sensor.o)
 .debug_aranges
                0x0000000000000240       0x30 build/cooja/mtype152.a(clock.o)
 .debug_aranges
                0x0000000000000270       0x30 build/cooja/mtype152.a(cooja-log.o)
 .debug_aranges
                0x00000000000002a0       0x30 build/cooja/mtype152.a(cfs-cooja.o)
 .debug_aranges
                0x00000000000002d0       0x30 build/cooja/mtype152.a(cooja-radio.o)
 .debug_aranges
                0x0000000000000300       0x30 build/cooja/mtype152.a(eeprom.o)
 .debug_aranges
                0x0000000000000330       0x30 build/cooja/mtype152.a(random.o)
 .debug_aranges
                0x0000000000000360       0x30 build/cooja/mtype152.a(sensors.o)
 .debug_aranges
                0x0000000000000390       0x30 build/cooja/mtype152.a(leds.o)
 .debug_aranges
                0x00000000000003c0       0x30 build/cooja/mtype152.a(gpio-hal-arch.o)
 .debug_aranges
                0x00000000000003f0       0x30 build/cooja/mtype152.a(buttons.o)
 .debug_aranges
                0x0000000000000420       0x30 build/cooja/mtype152.a(temperature.o)
 .debug_aranges
                0x0000000000000450       0x30 build/cooja/mtype152.a(alarm.o)
 .debug_aranges
                0x0000000000000480       0x30 build/cooja/mtype152.a(coap-blocking-a)
 .debug_aranges
                0x00000000000004b0       0x30 build/cooja/mtype152.a(coap-engine.o)
 .debug_aranges
                0x00000000000004e0       0x30 build/cooja/mtype152.a(coap-res-well-k)
 .debug_aranges
                0x0000000000000510       0x30 build/cooja/mtype152.a(coap-observe.o)
 .debug_aranges
                0x0000000000000540       0x30 build/cooja/mtype152.a(coap-uip.o)
 .debug_aranges
                0x0000000000000570       0x30 build/cooja/mtype152.a(coap-timer.o)
 .debug_aranges
                0x00000000000005a0       0x30 build/cooja/mtype152.a(coap-transactio)
 .debug_aranges
                0x00000000000005d0       0x30 build/cooja/mtype152.a(coap.o)
 .debug_aranges
                0x0000000000000600       0x30 build/cooja/mtype152.a(contiki-main.o)
 .debug_aranges
                0x0000000000000630       0x30 build/cooja/mtype152.a(autostart.o)
 .debug_aranges
                0x0000000000000660       0x30 build/cooja/mtype152.a(ctimer.o)
 .debug_aranges
                0x0000000000000690       0x30 build/cooja/mtype152.a(log.o)
 .debug_aranges
                0x00000000000006c0       0x30 build/cooja/mtype152.a(energest.o)
 .debug_aranges
                0x00000000000006f0       0x30 build/cooja/mtype152.a(etimer.o)
 .debug_aranges
                0x0000000000000720       0x30 build/cooja/mtype152.a(node-id.o)
 .debug_aranges
                0x0000000000000750       0x30 build/cooja/mtype152.a(rtimer.o)
 .debug_aranges
                0x0000000000000780       0x30 build/cooja/mtype152.a(process.o)
 .debug_aranges
                0x00000000000007b0       0x30 build/cooja/mtype152.a(timer.o)
 .debug_aranges
                0x00000000000007e0       0x30 build/cooja/mtype152.a(list.o)
 .debug_aranges
                0x0000000000000810       0x30 build/cooja/mtype152.a(memb.o)
 .debug_aranges
                0x0000000000000840       0x30 build/cooja/mtype152.a(button-hal.o)
 .debug_aranges
                0x0000000000000870       0x30 build/cooja/mtype152.a(serial-line.o)
 .debug_aranges
                0x00000000000008a0       0x30 build/cooja/mtype152.a(gpio-hal.o)
 .debug_aranges
                0x00000000000008d0       0x30 build/cooja/mtype152.a(queuebuf.o)
 .debug_aranges
                0x0000000000000900       0x30 build/cooja/mtype152.a(packetbuf.o)
 .debug_aranges
                0x0000000000000930       0x30 build/cooja/mtype152.a(netstack.o)
 .debug_aranges
                0x0000000000000960       0x30 build/cooja/mtype152.a(linkaddr.o)
 .debug_aranges
                0x0000000000000990       0x30 build/cooja/mtype152.a(csma.o)
 .debug_aranges
                0x00000000000009c0       0x30 build/cooja/mtype152.a(csma-output.o)
 .debug_aranges
                0x00000000000009f0       0x30 build/cooja/mtype152.a(uip-ds6.o)
 .debug_aranges
                0x0000000000000a20       0x30 build/cooja/mtype152.a(uip-udp-packet.)
 .debug_aranges
                0x0000000000000a50       0x30 build/cooja/mtype152.a(uip-ds6-route.o)
 .debug_aranges
                0x0000000000000a80       0x30 build/cooja/mtype152.a(tcpip.o)
 .debug_aranges
                0x0000000000000ab0       0x30 build/cooja/mtype152.a(uip6.o)
 .debug_aranges
                0x0000000000000ae0       0x30 build/cooja/mtype152.a(uip-ds6-nbr.o)
 .debug_aranges
                0x0000000000000b10       0x30 build/cooja/mtype152.a(uip-nd6.o)
 .debug_aranges
                0x0000000000000b40       0x30 build/cooja/mtype152.a(sicslowpan.o)
 .debug_aranges
                0x0000000000000b70       0x30 build/cooja/mtype152.a(uiplib.o)
 .debug_aranges
                0x0000000000000ba0       0x30 build/cooja/mtype152.a(rpl.o)
 .debug_aranges
                0x0000000000000bd0       0x30 build/cooja/mtype152.a(rpl-icmp6.o)
 .debug_aranges
                0x0000000000000c00       0x30 build/cooja/mtype152.a(rpl-dag-root.o)
 .debug_aranges
                0x0000000000000c30       0x30 build/cooja/mtype152.a(watchdog.o)
 .debug_aranges
                0x0000000000000c60       0x30 build/cooja/mtype152.a(int-master.o)
 .debug_aranges
                0x0000000000000c90       0x30 build/cooja/mtype152.a(coap-timer-defa)
 .debug_aranges
                0x0000000000000cc0       0x30 build/cooja/mtype152.a(stimer.o)
 .debug_aranges
                0x0000000000000cf0       0x30 build/cooja/mtype152.a(ringbuf.o)
 .debug_aranges
                0x0000000000000d20       0x30 build/cooja/mtype152.a(assert.o)
 .debug_aranges
                0x0000000000000d50       0x30 build/cooja/mtype152.a(nbr-table.o)
 .debug_aranges
                0x0000000000000d80       0x30 build/cooja/mtype152.a(link-stats.o)
 .debug_aranges
                0x0000000000000db0       0x30 build/cooja/mtype152.a(mac-sequence.o)
 .debug_aranges
                0x0000000000000de0       0x30 build/cooja/mtype152.a(mac.o)
 .debug_aranges
                0x0000000000000e10       0x30 build/cooja/mtype152.a(framer-802154.o)
 .debug_aranges
                0x0000000000000e40       0x30 build/cooja/mtype152.a(frame802154.o)
 .debug_aranges
                0x0000000000000e70       0x30 build/cooja/mtype152.a(csma-security.o)
 .debug_aranges
                0x0000000000000ea0       0x30 build/cooja/mtype152.a(uipbuf.o)
 .debug_aranges
                0x0000000000000ed0       0x30 build/cooja/mtype152.a(uip-icmp6.o)
 .debug_aranges
                0x0000000000000f00       0x30 build/cooja/mtype152.a(uip-sr.o)
 .debug_aranges
                0x0000000000000f30       0x30 build/cooja/mtype152.a(uip-packetqueue)
 .debug_aranges
                0x0000000000000f60       0x30 build/cooja/mtype152.a(rpl-nbr-policy.)
 .debug_aranges
                0x0000000000000f90       0x30 build/cooja/mtype152.a(rpl-neighbor.o)
 .debug_aranges
                0x0000000000000fc0       0x30 build/cooja/mtype152.a(rpl-dag.o)
 .debug_aranges
                0x0000000000000ff0       0x30 build/cooja/mtype152.a(rpl-timers.o)
 .debug_aranges
                0x0000000000001020       0x30 build/cooja/mtype152.a(rpl-ext-header.)
 .debug_aranges
                0x0000000000001050       0x30 build/cooja/mtype152.a(rpl-mrhof.o)

.debug_pubnames
 *(.debug_pubnames)

.debug_info     0x0000000000000000    0x4dcb4
 *(.debug_info .gnu.linkonce.wi.*)
 .debug_info    0x0000000000000000     0x1428 node.o
 .debug_info    0x0000000000001428     0x419b build/cooja/mtype152.o
 .debug_info    0x00000000000055c3      0x524 build/cooja/mtype152.a(simEnvChange.o)
 .debug_info    0x0000000000005ae7      0x2f2 build/cooja/mtype152.a(cooja_mt.o)
 .debug_info    0x0000000000005dd9      0x604 build/cooja/mtype152.a(cooja_mtarch.o)
 .debug_info    0x00000000000063dd      0x34b build/cooja/mtype152.a(rtimer-arch.o)
 .debug_info    0x0000000000006728      0x38e build/cooja/mtype152.a(beep.o)
 .debug_info    0x0000000000006ab6      0x30e build/cooja/mtype152.a(leds-arch.o)
 .debug_info    0x0000000000006dc4      0x27b build/cooja/mtype152.a(moteid.o)
 .debug_info    0x000000000000703f      0x3b5 build/cooja/mtype152.a(pir-sensor.o)
 .debug_info    0x00000000000073f4      0x661 build/cooja/mtype152.a(rs232.o)
 .debug_info    0x0000000000007a55      0x3b5 build/cooja/mtype152.a(vib-sensor.o)
 .debug_info    0x0000000000007e0a      0x2c5 build/cooja/mtype152.a(clock.o)
 .debug_info    0x00000000000080cf      0x729 build/cooja/mtype152.a(cooja-log.o)
 .debug_info    0x00000000000087f8      0x7fb build/cooja/mtype152.a(cfs-cooja.o)
 .debug_info    0x0000000000008ff3     0x13e4 build/cooja/mtype152.a(cooja-radio.o)
 .debug_info    0x000000000000a3d7      0x354 build/cooja/mtype152.a(eeprom.o)
 .debug_info    0x000000000000a72b      0x210 build/cooja/mtype152.a(random.o)
 .debug_info    0x000000000000a93b      0x43b build/cooja/mtype152.a(sensors.o)
 .debug_info    0x000000000000ad76      0x41c build/cooja/mtype152.a(leds.o)
 .debug_info    0x000000000000b192      0xd17 build/cooja/mtype152.a(gpio-hal-arch.o)
 .debug_info    0x000000000000bea9      0xd04 build/cooja/mtype152.a(buttons.o)
 .debug_info    0x000000000000cbad     0x103a build/cooja/mtype152.a(temperature.o)
 .debug_info    0x000000000000dbe7     0x106c build/cooja/mtype152.a(alarm.o)
 .debug_info    0x000000000000ec53     0x106c build/cooja/mtype152.a(coap-blocking-a)
 .debug_info    0x000000000000fcbf     0x177d build/cooja/mtype152.a(coap-engine.o)
 .debug_info    0x000000000001143c     0x10ed build/cooja/mtype152.a(coap-res-well-k)
 .debug_info    0x0000000000012529     0x1685 build/cooja/mtype152.a(coap-observe.o)
 .debug_info    0x0000000000013bae     0x195d build/cooja/mtype152.a(coap-uip.o)
 .debug_info    0x000000000001550b      0xbe8 build/cooja/mtype152.a(coap-timer.o)
 .debug_info    0x00000000000160f3     0x11a5 build/cooja/mtype152.a(coap-transactio)
 .debug_info    0x0000000000017298     0x1ec8 build/cooja/mtype152.a(coap.o)
 .debug_info    0x0000000000019160     0x20d1 build/cooja/mtype152.a(contiki-main.o)
 .debug_info    0x000000000001b231      0x22f build/cooja/mtype152.a(autostart.o)
 .debug_info    0x000000000001b460      0x54a build/cooja/mtype152.a(ctimer.o)
 .debug_info    0x000000000001b9aa      0xc52 build/cooja/mtype152.a(log.o)
 .debug_info    0x000000000001c5fc      0x222 build/cooja/mtype152.a(energest.o)
 .debug_info    0x000000000001c81e      0x589 build/cooja/mtype152.a(etimer.o)
 .debug_info    0x000000000001cda7      0x5f7 build/cooja/mtype152.a(node-id.o)
 .debug_info    0x000000000001d39e      0x32b build/cooja/mtype152.a(rtimer.o)
 .debug_info    0x000000000001d6c9      0x82d build/cooja/mtype152.a(process.o)
 .debug_info    0x000000000001def6      0x2da build/cooja/mtype152.a(timer.o)
 .debug_info    0x000000000001e1d0      0x530 build/cooja/mtype152.a(list.o)
 .debug_info    0x000000000001e700      0x34d build/cooja/mtype152.a(memb.o)
 .debug_info    0x000000000001ea4d      0x714 build/cooja/mtype152.a(button-hal.o)
 .debug_info    0x000000000001f161      0x3a3 build/cooja/mtype152.a(serial-line.o)
 .debug_info    0x000000000001f504      0xb20 build/cooja/mtype152.a(gpio-hal.o)
 .debug_info    0x0000000000020024     0x15cc build/cooja/mtype152.a(queuebuf.o)
 .debug_info    0x00000000000215f0     0x15bc build/cooja/mtype152.a(packetbuf.o)
 .debug_info    0x0000000000022bac      0x75b build/cooja/mtype152.a(netstack.o)
 .debug_info    0x0000000000023307      0x303 build/cooja/mtype152.a(linkaddr.o)
 .debug_info    0x000000000002360a      0xf0a build/cooja/mtype152.a(csma.o)
 .debug_info    0x0000000000024514     0x15f7 build/cooja/mtype152.a(csma-output.o)
 .debug_info    0x0000000000025b0b     0x1741 build/cooja/mtype152.a(uip-ds6.o)
 .debug_info    0x000000000002724c      0x703 build/cooja/mtype152.a(uip-udp-packet.)
 .debug_info    0x000000000002794f     0x1646 build/cooja/mtype152.a(uip-ds6-route.o)
 .debug_info    0x0000000000028f95     0x1a0b build/cooja/mtype152.a(tcpip.o)
 .debug_info    0x000000000002a9a0     0x1b91 build/cooja/mtype152.a(uip6.o)
 .debug_info    0x000000000002c531     0x1839 build/cooja/mtype152.a(uip-ds6-nbr.o)
 .debug_info    0x000000000002dd6a     0x1455 build/cooja/mtype152.a(uip-nd6.o)
 .debug_info    0x000000000002f1bf     0x23dd build/cooja/mtype152.a(sicslowpan.o)
 .debug_info    0x000000000003159c      0xb2f build/cooja/mtype152.a(uiplib.o)
 .debug_info    0x00000000000320cb     0x1c43 build/cooja/mtype152.a(rpl.o)
 .debug_info    0x0000000000033d0e     0x1dac build/cooja/mtype152.a(rpl-icmp6.o)
 .debug_info    0x0000000000035aba     0x1a7f build/cooja/mtype152.a(rpl-dag-root.o)
 .debug_info    0x0000000000037539      0x23a build/cooja/mtype152.a(watchdog.o)
 .debug_info    0x0000000000037773      0x28b build/cooja/mtype152.a(int-master.o)
 .debug_info    0x00000000000379fe      0xb59 build/cooja/mtype152.a(coap-timer-defa)
 .debug_info    0x0000000000038557      0x2fa build/cooja/mtype152.a(stimer.o)
 .debug_info    0x0000000000038851      0x32e build/cooja/mtype152.a(ringbuf.o)
 .debug_info    0x0000000000038b7f      0x479 build/cooja/mtype152.a(assert.o)
 .debug_info    0x0000000000038ff8      0xf15 build/cooja/mtype152.a(nbr-table.o)
 .debug_info    0x0000000000039f0d     0x11ac build/cooja/mtype152.a(link-stats.o)
 .debug_info    0x000000000003b0b9     0x11ea build/cooja/mtype152.a(mac-sequence.o)
 .debug_info    0x000000000003c2a3      0x99f build/cooja/mtype152.a(mac.o)
 .debug_info    0x000000000003cc42      0xd55 build/cooja/mtype152.a(framer-802154.o)
 .debug_info    0x000000000003d997      0xc51 build/cooja/mtype152.a(frame802154.o)
 .debug_info    0x000000000003e5e8      0xe02 build/cooja/mtype152.a(csma-security.o)
 .debug_info    0x000000000003f3ea      0xace build/cooja/mtype152.a(uipbuf.o)
 .debug_info    0x000000000003feb8     0x1877 build/cooja/mtype152.a(uip-icmp6.o)
 .debug_info    0x000000000004172f     0x1667 build/cooja/mtype152.a(uip-sr.o)
 .debug_info    0x0000000000042d96      0xb88 build/cooja/mtype152.a(uip-packetqueue)
 .debug_info    0x000000000004391e     0x18d4 build/cooja/mtype152.a(rpl-nbr-policy.)
 .debug_info    0x00000000000451f2     0x1ba5 build/cooja/mtype152.a(rpl-neighbor.o)
 .debug_info    0x0000000000046d97     0x1d5a build/cooja/mtype152.a(rpl-dag.o)
 .debug_info    0x0000000000048af1     0x1adc build/cooja/mtype152.a(rpl-timers.o)
 .debug_info    0x000000000004a5cd     0x1f4d build/cooja/mtype152.a(rpl-ext-header.)
 .debug_info    0x000000000004c51a     0x179a build/cooja/mtype152.a(rpl-mrhof.o)

.debug_abbrev   0x0000000000000000     0xc3e1
 *(.debug_abbrev)
 .debug_abbrev  0x0000000000000000      0x283 node.o
 .debug_abbrev  0x0000000000000283      0x2ff build/cooja/mtype152.o
 .debug_abbrev  0x0000000000000582      0x167 build/cooja/mtype152.a(simEnvChange.o)
 .debug_abbrev  0x00000000000006e9      0x173 build/cooja/mtype152.a(cooja_mt.o)
 .debug_abbrev  0x000000000000085c      0x1bd build/cooja/mtype152.a(cooja_mtarch.o)
 .debug_abbrev  0x0000000000000a19      0x18f build/cooja/mtype152.a(rtimer-arch.o)
 .debug_abbrev  0x0000000000000ba8      0x18f build/cooja/mtype152.a(beep.o)
 .debug_abbrev  0x0000000000000d37      0x15c build/cooja/mtype152.a(leds-arch.o)
 .debug_abbrev  0x0000000000000e93      0x14a build/cooja/mtype152.a(moteid.o)
 .debug_abbrev  0x0000000000000fdd      0x19a build/cooja/mtype152.a(pir-sensor.o)
 .debug_abbrev  0x0000000000001177      0x1ed build/cooja/mtype152.a(rs232.o)
 .debug_abbrev  0x0000000000001364      0x19a build/cooja/mtype152.a(vib-sensor.o)
 .debug_abbrev  0x00000000000014fe      0x18f build/cooja/mtype152.a(clock.o)
 .debug_abbrev  0x000000000000168d      0x1ff build/cooja/mtype152.a(cooja-log.o)
 .debug_abbrev  0x000000000000188c      0x1eb build/cooja/mtype152.a(cfs-cooja.o)
 .debug_abbrev  0x0000000000001a77      0x37b build/cooja/mtype152.a(cooja-radio.o)
 .debug_abbrev  0x0000000000001df2      0x180 build/cooja/mtype152.a(eeprom.o)
 .debug_abbrev  0x0000000000001f72      0x11c build/cooja/mtype152.a(random.o)
 .debug_abbrev  0x000000000000208e      0x1cd build/cooja/mtype152.a(sensors.o)
 .debug_abbrev  0x000000000000225b      0x183 build/cooja/mtype152.a(leds.o)
 .debug_abbrev  0x00000000000023de      0x24a build/cooja/mtype152.a(gpio-hal-arch.o)
 .debug_abbrev  0x0000000000002628      0x210 build/cooja/mtype152.a(buttons.o)
 .debug_abbrev  0x0000000000002838      0x247 build/cooja/mtype152.a(temperature.o)
 .debug_abbrev  0x0000000000002a7f      0x226 build/cooja/mtype152.a(alarm.o)
 .debug_abbrev  0x0000000000002ca5      0x226 build/cooja/mtype152.a(coap-blocking-a)
 .debug_abbrev  0x0000000000002ecb      0x37a build/cooja/mtype152.a(coap-engine.o)
 .debug_abbrev  0x0000000000003245      0x217 build/cooja/mtype152.a(coap-res-well-k)
 .debug_abbrev  0x000000000000345c      0x2e4 build/cooja/mtype152.a(coap-observe.o)
 .debug_abbrev  0x0000000000003740      0x3b8 build/cooja/mtype152.a(coap-uip.o)
 .debug_abbrev  0x0000000000003af8      0x240 build/cooja/mtype152.a(coap-timer.o)
 .debug_abbrev  0x0000000000003d38      0x297 build/cooja/mtype152.a(coap-transactio)
 .debug_abbrev  0x0000000000003fcf      0x32a build/cooja/mtype152.a(coap.o)
 .debug_abbrev  0x00000000000042f9      0x248 build/cooja/mtype152.a(contiki-main.o)
 .debug_abbrev  0x0000000000004541      0x12b build/cooja/mtype152.a(autostart.o)
 .debug_abbrev  0x000000000000466c      0x1be build/cooja/mtype152.a(ctimer.o)
 .debug_abbrev  0x000000000000482a      0x21a build/cooja/mtype152.a(log.o)
 .debug_abbrev  0x0000000000004a44      0x10d build/cooja/mtype152.a(energest.o)
 .debug_abbrev  0x0000000000004b51      0x229 build/cooja/mtype152.a(etimer.o)
 .debug_abbrev  0x0000000000004d7a      0x180 build/cooja/mtype152.a(node-id.o)
 .debug_abbrev  0x0000000000004efa      0x1a6 build/cooja/mtype152.a(rtimer.o)
 .debug_abbrev  0x00000000000050a0      0x27b build/cooja/mtype152.a(process.o)
 .debug_abbrev  0x000000000000531b      0x174 build/cooja/mtype152.a(timer.o)
 .debug_abbrev  0x000000000000548f      0x1e2 build/cooja/mtype152.a(list.o)
 .debug_abbrev  0x0000000000005671      0x15a build/cooja/mtype152.a(memb.o)
 .debug_abbrev  0x00000000000057cb      0x206 build/cooja/mtype152.a(button-hal.o)
 .debug_abbrev  0x00000000000059d1      0x1a0 build/cooja/mtype152.a(serial-line.o)
 .debug_abbrev  0x0000000000005b71      0x1ef build/cooja/mtype152.a(gpio-hal.o)
 .debug_abbrev  0x0000000000005d60      0x2c2 build/cooja/mtype152.a(queuebuf.o)
 .debug_abbrev  0x0000000000006022      0x2db build/cooja/mtype152.a(packetbuf.o)
 .debug_abbrev  0x00000000000062fd      0x205 build/cooja/mtype152.a(netstack.o)
 .debug_abbrev  0x0000000000006502      0x177 build/cooja/mtype152.a(linkaddr.o)
 .debug_abbrev  0x0000000000006679      0x26a build/cooja/mtype152.a(csma.o)
 .debug_abbrev  0x00000000000068e3      0x2df build/cooja/mtype152.a(csma-output.o)
 .debug_abbrev  0x0000000000006bc2      0x31c build/cooja/mtype152.a(uip-ds6.o)
 .debug_abbrev  0x0000000000006ede      0x1cf build/cooja/mtype152.a(uip-udp-packet.)
 .debug_abbrev  0x00000000000070ad      0x332 build/cooja/mtype152.a(uip-ds6-route.o)
 .debug_abbrev  0x00000000000073df      0x3cd build/cooja/mtype152.a(tcpip.o)
 .debug_abbrev  0x00000000000077ac      0x303 build/cooja/mtype152.a(uip6.o)
 .debug_abbrev  0x0000000000007aaf      0x2ea build/cooja/mtype152.a(uip-ds6-nbr.o)
 .debug_abbrev  0x0000000000007d99      0x270 build/cooja/mtype152.a(uip-nd6.o)
 .debug_abbrev  0x0000000000008009      0x355 build/cooja/mtype152.a(sicslowpan.o)
 .debug_abbrev  0x000000000000835e      0x1fd build/cooja/mtype152.a(uiplib.o)
 .debug_abbrev  0x000000000000855b      0x31b build/cooja/mtype152.a(rpl.o)
 .debug_abbrev  0x0000000000008876      0x35b build/cooja/mtype152.a(rpl-icmp6.o)
 .debug_abbrev  0x0000000000008bd1      0x299 build/cooja/mtype152.a(rpl-dag-root.o)
 .debug_abbrev  0x0000000000008e6a      0x10b build/cooja/mtype152.a(watchdog.o)
 .debug_abbrev  0x0000000000008f75      0x170 build/cooja/mtype152.a(int-master.o)
 .debug_abbrev  0x00000000000090e5      0x235 build/cooja/mtype152.a(coap-timer-defa)
 .debug_abbrev  0x000000000000931a      0x165 build/cooja/mtype152.a(stimer.o)
 .debug_abbrev  0x000000000000947f      0x15a build/cooja/mtype152.a(ringbuf.o)
 .debug_abbrev  0x00000000000095d9      0x13d build/cooja/mtype152.a(assert.o)
 .debug_abbrev  0x0000000000009716      0x2af build/cooja/mtype152.a(nbr-table.o)
 .debug_abbrev  0x00000000000099c5      0x2d3 build/cooja/mtype152.a(link-stats.o)
 .debug_abbrev  0x0000000000009c98      0x228 build/cooja/mtype152.a(mac-sequence.o)
 .debug_abbrev  0x0000000000009ec0      0x1ae build/cooja/mtype152.a(mac.o)
 .debug_abbrev  0x000000000000a06e      0x22e build/cooja/mtype152.a(framer-802154.o)
 .debug_abbrev  0x000000000000a29c      0x2cc build/cooja/mtype152.a(frame802154.o)
 .debug_abbrev  0x000000000000a568      0x1d2 build/cooja/mtype152.a(csma-security.o)
 .debug_abbrev  0x000000000000a73a      0x224 build/cooja/mtype152.a(uipbuf.o)
 .debug_abbrev  0x000000000000a95e      0x2c7 build/cooja/mtype152.a(uip-icmp6.o)
 .debug_abbrev  0x000000000000ac25      0x2c7 build/cooja/mtype152.a(uip-sr.o)
 .debug_abbrev  0x000000000000aeec      0x254 build/cooja/mtype152.a(uip-packetqueue)
 .debug_abbrev  0x000000000000b140      0x292 build/cooja/mtype152.a(rpl-nbr-policy.)
 .debug_abbrev  0x000000000000b3d2      0x375 build/cooja/mtype152.a(rpl-neighbor.o)
 .debug_abbrev  0x000000000000b747      0x3d4 build/cooja/mtype152.a(rpl-dag.o)
 .debug_abbrev  0x000000000000bb1b      0x32c build/cooja/mtype152.a(rpl-timers.o)
 .debug_abbrev  0x000000000000be47      0x32d build/cooja/mtype152.a(rpl-ext-header.)
 .debug_abbrev  0x000000000000c174      0x26d build/cooja/mtype152.a(rpl-mrhof.o)

.debug_line     0x0000000000000000    0x10f36
 *(.debug_line .debug_line.* .debug_line_end)
 .debug_line    0x0000000000000000      0x396 node.o
 .debug_line    0x0000000000000396      0x4f9 build/cooja/mtype152.o
 .debug_line    0x000000000000088f      0x1e5 build/cooja/mtype152.a(simEnvChange.o)
 .debug_line    0x0000000000000a74      0x176 build/cooja/mtype152.a(cooja_mt.o)
 .debug_line    0x0000000000000bea      0x224 build/cooja/mtype152.a(cooja_mtarch.o)
 .debug_line    0x0000000000000e0e      0x1a8 build/cooja/mtype152.a(rtimer-arch.o)
 .debug_line    0x0000000000000fb6      0x13a build/cooja/mtype152.a(beep.o)
 .debug_line    0x00000000000010f0      0x19b build/cooja/mtype152.a(leds-arch.o)
 .debug_line    0x000000000000128b      0x157 build/cooja/mtype152.a(moteid.o)
 .debug_line    0x00000000000013e2      0x198 build/cooja/mtype152.a(pir-sensor.o)
 .debug_line    0x000000000000157a      0x240 build/cooja/mtype152.a(rs232.o)
 .debug_line    0x00000000000017ba      0x198 build/cooja/mtype152.a(vib-sensor.o)
 .debug_line    0x0000000000001952      0x12c build/cooja/mtype152.a(clock.o)
 .debug_line    0x0000000000001a7e      0x226 build/cooja/mtype152.a(cooja-log.o)
 .debug_line    0x0000000000001ca4      0x24d build/cooja/mtype152.a(cfs-cooja.o)
 .debug_line    0x0000000000001ef1      0x3c4 build/cooja/mtype152.a(cooja-radio.o)
 .debug_line    0x00000000000022b5      0x164 build/cooja/mtype152.a(eeprom.o)
 .debug_line    0x0000000000002419      0x112 build/cooja/mtype152.a(random.o)
 .debug_line    0x000000000000252b      0x1bd build/cooja/mtype152.a(sensors.o)
 .debug_line    0x00000000000026e8      0x216 build/cooja/mtype152.a(leds.o)
 .debug_line    0x00000000000028fe      0x315 build/cooja/mtype152.a(gpio-hal-arch.o)
 .debug_line    0x0000000000002c13      0x2ae build/cooja/mtype152.a(buttons.o)
 .debug_line    0x0000000000002ec1      0x2c9 build/cooja/mtype152.a(temperature.o)
 .debug_line    0x000000000000318a      0x2d0 build/cooja/mtype152.a(alarm.o)
 .debug_line    0x000000000000345a      0x329 build/cooja/mtype152.a(coap-blocking-a)
 .debug_line    0x0000000000003783      0x497 build/cooja/mtype152.a(coap-engine.o)
 .debug_line    0x0000000000003c1a      0x360 build/cooja/mtype152.a(coap-res-well-k)
 .debug_line    0x0000000000003f7a      0x446 build/cooja/mtype152.a(coap-observe.o)
 .debug_line    0x00000000000043c0      0x4c7 build/cooja/mtype152.a(coap-uip.o)
 .debug_line    0x0000000000004887      0x2b1 build/cooja/mtype152.a(coap-timer.o)
 .debug_line    0x0000000000004b38      0x32e build/cooja/mtype152.a(coap-transactio)
 .debug_line    0x0000000000004e66      0x6d3 build/cooja/mtype152.a(coap.o)
 .debug_line    0x0000000000005539      0x5b0 build/cooja/mtype152.a(contiki-main.o)
 .debug_line    0x0000000000005ae9      0x129 build/cooja/mtype152.a(autostart.o)
 .debug_line    0x0000000000005c12      0x1cd build/cooja/mtype152.a(ctimer.o)
 .debug_line    0x0000000000005ddf      0x296 build/cooja/mtype152.a(log.o)
 .debug_line    0x0000000000006075      0x143 build/cooja/mtype152.a(energest.o)
 .debug_line    0x00000000000061b8      0x1fd build/cooja/mtype152.a(etimer.o)
 .debug_line    0x00000000000063b5      0x19a build/cooja/mtype152.a(node-id.o)
 .debug_line    0x000000000000654f      0x164 build/cooja/mtype152.a(rtimer.o)
 .debug_line    0x00000000000066b3      0x2b4 build/cooja/mtype152.a(process.o)
 .debug_line    0x0000000000006967      0x122 build/cooja/mtype152.a(timer.o)
 .debug_line    0x0000000000006a89      0x1dc build/cooja/mtype152.a(list.o)
 .debug_line    0x0000000000006c65      0x187 build/cooja/mtype152.a(memb.o)
 .debug_line    0x0000000000006dec      0x28f build/cooja/mtype152.a(button-hal.o)
 .debug_line    0x000000000000707b      0x1f3 build/cooja/mtype152.a(serial-line.o)
 .debug_line    0x000000000000726e      0x268 build/cooja/mtype152.a(gpio-hal.o)
 .debug_line    0x00000000000074d6      0x36f build/cooja/mtype152.a(queuebuf.o)
 .debug_line    0x0000000000007845      0x3b2 build/cooja/mtype152.a(packetbuf.o)
 .debug_line    0x0000000000007bf7      0x24b build/cooja/mtype152.a(netstack.o)
 .debug_line    0x0000000000007e42      0x167 build/cooja/mtype152.a(linkaddr.o)
 .debug_line    0x0000000000007fa9      0x2e5 build/cooja/mtype152.a(csma.o)
 .debug_line    0x000000000000828e      0x469 build/cooja/mtype152.a(csma-output.o)
 .debug_line    0x00000000000086f7      0x51d build/cooja/mtype152.a(uip-ds6.o)
 .debug_line    0x0000000000008c14      0x1e4 build/cooja/mtype152.a(uip-udp-packet.)
 .debug_line    0x0000000000008df8      0x3c3 build/cooja/mtype152.a(uip-ds6-route.o)
 .debug_line    0x00000000000091bb      0x4a4 build/cooja/mtype152.a(tcpip.o)
 .debug_line    0x000000000000965f      0x787 build/cooja/mtype152.a(uip6.o)
 .debug_line    0x0000000000009de6      0x403 build/cooja/mtype152.a(uip-ds6-nbr.o)
 .debug_line    0x000000000000a1e9      0x45e build/cooja/mtype152.a(uip-nd6.o)
 .debug_line    0x000000000000a647      0xbc0 build/cooja/mtype152.a(sicslowpan.o)
 .debug_line    0x000000000000b207      0x32e build/cooja/mtype152.a(uiplib.o)
 .debug_line    0x000000000000b535      0x499 build/cooja/mtype152.a(rpl.o)
 .debug_line    0x000000000000b9ce      0x5ea build/cooja/mtype152.a(rpl-icmp6.o)
 .debug_line    0x000000000000bfb8      0x40f build/cooja/mtype152.a(rpl-dag-root.o)
 .debug_line    0x000000000000c3c7      0x12b build/cooja/mtype152.a(watchdog.o)
 .debug_line    0x000000000000c4f2      0x15b build/cooja/mtype152.a(int-master.o)
 .debug_line    0x000000000000c64d      0x297 build/cooja/mtype152.a(coap-timer-defa)
 .debug_line    0x000000000000c8e4      0x129 build/cooja/mtype152.a(stimer.o)
 .debug_line    0x000000000000ca0d      0x187 build/cooja/mtype152.a(ringbuf.o)
 .debug_line    0x000000000000cb94      0x1a6 build/cooja/mtype152.a(assert.o)
 .debug_line    0x000000000000cd3a      0x3e6 build/cooja/mtype152.a(nbr-table.o)
 .debug_line    0x000000000000d120      0x392 build/cooja/mtype152.a(link-stats.o)
 .debug_line    0x000000000000d4b2      0x35f build/cooja/mtype152.a(mac-sequence.o)
 .debug_line    0x000000000000d811      0x21a build/cooja/mtype152.a(mac.o)
 .debug_line    0x000000000000da2b      0x306 build/cooja/mtype152.a(framer-802154.o)
 .debug_line    0x000000000000dd31      0x3e6 build/cooja/mtype152.a(frame802154.o)
 .debug_line    0x000000000000e117      0x2d5 build/cooja/mtype152.a(csma-security.o)
 .debug_line    0x000000000000e3ec      0x278 build/cooja/mtype152.a(uipbuf.o)
 .debug_line    0x000000000000e664      0x46b build/cooja/mtype152.a(uip-icmp6.o)
 .debug_line    0x000000000000eacf      0x460 build/cooja/mtype152.a(uip-sr.o)
 .debug_line    0x000000000000ef2f      0x287 build/cooja/mtype152.a(uip-packetqueue)
 .debug_line    0x000000000000f1b6      0x38b build/cooja/mtype152.a(rpl-nbr-policy.)
 .debug_line    0x000000000000f541      0x547 build/cooja/mtype152.a(rpl-neighbor.o)
 .debug_line    0x000000000000fa88      0x5e7 build/cooja/mtype152.a(rpl-dag.o)
 .debug_line    0x000000000001006f      0x4ce build/cooja/mtype152.a(rpl-timers.o)
 .debug_line    0x000000000001053d      0x5c5 build/cooja/mtype152.a(rpl-ext-header.)
 .debug_line    0x0000000000010b02      0x434 build/cooja/mtype152.a(rpl-mrhof.o)

.debug_frame
 *(.debug_frame)

.debug_str      0x0000000000000000     0xa1ae
 *(.debug_str)
 .debug_str     0x0000000000000000     0x1092 node.o
                                       0x133b (size before relaxing)
 .debug_str     0x0000000000001092     0x1aaa build/cooja/mtype152.o
                                       0x2352 (size before relaxing)
 .debug_str     0x0000000000002b3c       0x33 build/cooja/mtype152.a(simEnvChange.o)
                                        0x44d (size before relaxing)
 .debug_str     0x0000000000002b6f       0x5b build/cooja/mtype152.a(cooja_mt.o)
                                        0x2a3 (size before relaxing)
 .debug_str     0x0000000000002bca       0x9a build/cooja/mtype152.a(cooja_mtarch.o)
                                        0x4c0 (size before relaxing)
 .debug_str     0x0000000000002c64      0x116 build/cooja/mtype152.a(rtimer-arch.o)
                                        0x36a (size before relaxing)
 .debug_str     0x0000000000002d7a       0xc9 build/cooja/mtype152.a(beep.o)
                                        0x30b (size before relaxing)
 .debug_str     0x0000000000002e43       0xa1 build/cooja/mtype152.a(leds-arch.o)
                                        0x32f (size before relaxing)
 .debug_str     0x0000000000002ee4       0x4c build/cooja/mtype152.a(moteid.o)
                                        0x2ce (size before relaxing)
 .debug_str     0x0000000000002f30       0x5a build/cooja/mtype152.a(pir-sensor.o)
                                        0x323 (size before relaxing)
 .debug_str     0x0000000000002f8a       0xc6 build/cooja/mtype152.a(rs232.o)
                                        0x583 (size before relaxing)
 .debug_str     0x0000000000003050       0x5a build/cooja/mtype152.a(vib-sensor.o)
                                        0x323 (size before relaxing)
 .debug_str     0x00000000000030aa       0x67 build/cooja/mtype152.a(clock.o)
                                        0x2de (size before relaxing)
 .debug_str     0x0000000000003111       0xfd build/cooja/mtype152.a(cooja-log.o)
                                        0x5a5 (size before relaxing)
 .debug_str     0x000000000000320e      0x111 build/cooja/mtype152.a(cfs-cooja.o)
                                        0x56e (size before relaxing)
 .debug_str     0x000000000000331f      0x657 build/cooja/mtype152.a(cooja-radio.o)
                                        0xf7d (size before relaxing)
 .debug_str     0x0000000000003976       0x9e build/cooja/mtype152.a(eeprom.o)
                                        0x31b (size before relaxing)
 .debug_str     0x0000000000003a14       0x39 build/cooja/mtype152.a(random.o)
                                        0x258 (size before relaxing)
 .debug_str     0x0000000000003a4d       0x91 build/cooja/mtype152.a(sensors.o)
                                        0x316 (size before relaxing)
 .debug_str     0x0000000000003ade       0x90 build/cooja/mtype152.a(leds.o)
                                        0x2f8 (size before relaxing)
 .debug_str     0x0000000000003b6e      0x2ab build/cooja/mtype152.a(gpio-hal-arch.o)
                                        0xa19 (size before relaxing)
 .debug_str     0x0000000000003e19       0xfa build/cooja/mtype152.a(buttons.o)
                                        0x9f2 (size before relaxing)
 .debug_str     0x0000000000003f13      0x1c5 build/cooja/mtype152.a(temperature.o)
                                       0x10c3 (size before relaxing)
 .debug_str     0x00000000000040d8       0x33 build/cooja/mtype152.a(alarm.o)
                                       0x1063 (size before relaxing)
 .debug_str     0x000000000000410b       0x96 build/cooja/mtype152.a(coap-blocking-a)
                                        0xf69 (size before relaxing)
 .debug_str     0x00000000000041a1      0x2f2 build/cooja/mtype152.a(coap-engine.o)
                                       0x140c (size before relaxing)
 .debug_str     0x0000000000004493       0x6e build/cooja/mtype152.a(coap-res-well-k)
                                       0x1221 (size before relaxing)
 .debug_str     0x0000000000004501      0x1f9 build/cooja/mtype152.a(coap-observe.o)
                                       0x1332 (size before relaxing)
 .debug_str     0x00000000000046fa      0x3ae build/cooja/mtype152.a(coap-uip.o)
                                       0x1322 (size before relaxing)
 .debug_str     0x0000000000004aa8       0xbd build/cooja/mtype152.a(coap-timer.o)
                                        0x8f2 (size before relaxing)
 .debug_str     0x0000000000004b65      0x122 build/cooja/mtype152.a(coap-transactio)
                                       0x106b (size before relaxing)
 .debug_str     0x0000000000004c87      0x5e4 build/cooja/mtype152.a(coap.o)
                                       0x146c (size before relaxing)
 .debug_str     0x000000000000526b      0x944 build/cooja/mtype152.a(contiki-main.o)
                                       0x1cf6 (size before relaxing)
 .debug_str     0x0000000000005baf       0x3e build/cooja/mtype152.a(autostart.o)
                                        0x242 (size before relaxing)
 .debug_str     0x0000000000005bed       0xc9 build/cooja/mtype152.a(ctimer.o)
                                        0x326 (size before relaxing)
 .debug_str     0x0000000000005cb6       0xa5 build/cooja/mtype152.a(log.o)
                                        0x81e (size before relaxing)
 .debug_str     0x0000000000005d5b       0x53 build/cooja/mtype152.a(energest.o)
                                        0x261 (size before relaxing)
 .debug_str     0x0000000000005dae      0x13c build/cooja/mtype152.a(etimer.o)
                                        0x38a (size before relaxing)
 .debug_str     0x0000000000005eea       0x2a build/cooja/mtype152.a(node-id.o)
                                        0x472 (size before relaxing)
 .debug_str     0x0000000000005f14       0xb6 build/cooja/mtype152.a(rtimer.o)
                                        0x2e5 (size before relaxing)
 .debug_str     0x0000000000005fca      0x14d build/cooja/mtype152.a(process.o)
                                        0x539 (size before relaxing)
 .debug_str     0x0000000000006117       0x1b build/cooja/mtype152.a(timer.o)
                                        0x271 (size before relaxing)
 .debug_str     0x0000000000006132       0xba build/cooja/mtype152.a(list.o)
                                        0x2d0 (size before relaxing)
 .debug_str     0x00000000000061ec       0x60 build/cooja/mtype152.a(memb.o)
                                        0x26f (size before relaxing)
 .debug_str     0x000000000000624c      0x185 build/cooja/mtype152.a(button-hal.o)
                                        0x55f (size before relaxing)
 .debug_str     0x00000000000063d1       0x86 build/cooja/mtype152.a(serial-line.o)
                                        0x2fb (size before relaxing)
 .debug_str     0x0000000000006457       0xf2 build/cooja/mtype152.a(gpio-hal.o)
                                        0x8de (size before relaxing)
 .debug_str     0x0000000000006549      0x1d0 build/cooja/mtype152.a(queuebuf.o)
                                        0xeaa (size before relaxing)
 .debug_str     0x0000000000006719      0x1ba build/cooja/mtype152.a(packetbuf.o)
                                        0xedf (size before relaxing)
 .debug_str     0x00000000000068d3      0x16d build/cooja/mtype152.a(netstack.o)
                                        0x5b1 (size before relaxing)
 .debug_str     0x0000000000006a40       0x56 build/cooja/mtype152.a(linkaddr.o)
                                        0x29b (size before relaxing)
 .debug_str     0x0000000000006a96       0x7a build/cooja/mtype152.a(csma.o)
                                        0xdb6 (size before relaxing)
 .debug_str     0x0000000000006b10      0x292 build/cooja/mtype152.a(csma-output.o)
                                        0xe72 (size before relaxing)
 .debug_str     0x0000000000006da2      0x30a build/cooja/mtype152.a(uip-ds6.o)
                                        0xea2 (size before relaxing)
 .debug_str     0x00000000000070ac       0x7a build/cooja/mtype152.a(uip-udp-packet.)
                                        0x4e1 (size before relaxing)
 .debug_str     0x0000000000007126      0x228 build/cooja/mtype152.a(uip-ds6-route.o)
                                        0xef8 (size before relaxing)
 .debug_str     0x000000000000734e      0x25d build/cooja/mtype152.a(tcpip.o)
                                       0x118e (size before relaxing)
 .debug_str     0x00000000000075ab      0x1ee build/cooja/mtype152.a(uip6.o)
                                       0x10fe (size before relaxing)
 .debug_str     0x0000000000007799      0x1c8 build/cooja/mtype152.a(uip-ds6-nbr.o)
                                       0x1125 (size before relaxing)
 .debug_str     0x0000000000007961      0x123 build/cooja/mtype152.a(uip-nd6.o)
                                        0xe8c (size before relaxing)
 .debug_str     0x0000000000007a84      0x58f build/cooja/mtype152.a(sicslowpan.o)
                                       0x1745 (size before relaxing)
 .debug_str     0x0000000000008013       0x96 build/cooja/mtype152.a(uiplib.o)
                                        0x7f2 (size before relaxing)
 .debug_str     0x00000000000080a9      0x125 build/cooja/mtype152.a(rpl.o)
                                       0x1365 (size before relaxing)
 .debug_str     0x00000000000081ce      0x1e3 build/cooja/mtype152.a(rpl-icmp6.o)
                                       0x1541 (size before relaxing)
 .debug_str     0x00000000000083b1       0xa7 build/cooja/mtype152.a(rpl-dag-root.o)
                                       0x12f5 (size before relaxing)
 .debug_str     0x0000000000008458       0x7c build/cooja/mtype152.a(watchdog.o)
                                        0x276 (size before relaxing)
 .debug_str     0x00000000000084d4       0x8e build/cooja/mtype152.a(int-master.o)
                                        0x2bd (size before relaxing)
 .debug_str     0x0000000000008562       0x73 build/cooja/mtype152.a(coap-timer-defa)
                                        0x892 (size before relaxing)
 .debug_str     0x00000000000085d5       0x72 build/cooja/mtype152.a(stimer.o)
                                        0x282 (size before relaxing)
 .debug_str     0x0000000000008647       0x60 build/cooja/mtype152.a(ringbuf.o)
                                        0x29b (size before relaxing)
 .debug_str     0x00000000000086a7       0x2c build/cooja/mtype152.a(assert.o)
                                        0x409 (size before relaxing)
 .debug_str     0x00000000000086d3      0x272 build/cooja/mtype152.a(nbr-table.o)
                                        0x873 (size before relaxing)
 .debug_str     0x0000000000008945      0x12f build/cooja/mtype152.a(link-stats.o)
                                        0xe3c (size before relaxing)
 .debug_str     0x0000000000008a74       0x76 build/cooja/mtype152.a(mac-sequence.o)
                                        0xd39 (size before relaxing)
 .debug_str     0x0000000000008aea       0x3b build/cooja/mtype152.a(mac.o)
                                        0x7ba (size before relaxing)
 .debug_str     0x0000000000008b25      0x233 build/cooja/mtype152.a(framer-802154.o)
                                        0xbae (size before relaxing)
 .debug_str     0x0000000000008d58      0x1f8 build/cooja/mtype152.a(frame802154.o)
                                        0x856 (size before relaxing)
 .debug_str     0x0000000000008f50       0x95 build/cooja/mtype152.a(csma-security.o)
                                        0xb56 (size before relaxing)
 .debug_str     0x0000000000008fe5      0x1b0 build/cooja/mtype152.a(uipbuf.o)
                                        0x730 (size before relaxing)
 .debug_str     0x0000000000009195      0x1f3 build/cooja/mtype152.a(uip-icmp6.o)
                                       0x10c0 (size before relaxing)
 .debug_str     0x0000000000009388      0x181 build/cooja/mtype152.a(uip-sr.o)
                                        0xe8e (size before relaxing)
 .debug_str     0x0000000000009509       0xf9 build/cooja/mtype152.a(uip-packetqueue)
                                        0x7c6 (size before relaxing)
 .debug_str     0x0000000000009602       0xaa build/cooja/mtype152.a(rpl-nbr-policy.)
                                       0x12af (size before relaxing)
 .debug_str     0x00000000000096ac      0x286 build/cooja/mtype152.a(rpl-neighbor.o)
                                       0x12e8 (size before relaxing)
 .debug_str     0x0000000000009932      0x2de build/cooja/mtype152.a(rpl-dag.o)
                                       0x1418 (size before relaxing)
 .debug_str     0x0000000000009c10      0x321 build/cooja/mtype152.a(rpl-timers.o)
                                       0x1314 (size before relaxing)
 .debug_str     0x0000000000009f31      0x1b8 build/cooja/mtype152.a(rpl-ext-header.)
                                       0x16cf (size before relaxing)
 .debug_str     0x000000000000a0e9       0xc5 build/cooja/mtype152.a(rpl-mrhof.o)
                                       0x1077 (size before relaxing)

.debug_loc
 *(.debug_loc)

.debug_macinfo
 *(.debug_macinfo)

.debug_weaknames
 *(.debug_weaknames)

.debug_funcnames
 *(.debug_funcnames)

.debug_typenames
 *(.debug_typenames)

.debug_varnames
 *(.debug_varnames)

.debug_pubtypes
 *(.debug_pubtypes)

.debug_ranges   0x0000000000000000      0x200
 *(.debug_ranges)
 .debug_ranges  0x0000000000000000       0x30 build/cooja/mtype152.a(etimer.o)
 .debug_ranges  0x0000000000000030       0x60 build/cooja/mtype152.a(csma-output.o)
 .debug_ranges  0x0000000000000090       0x30 build/cooja/mtype152.a(tcpip.o)
 .debug_ranges  0x00000000000000c0       0x50 build/cooja/mtype152.a(uip-nd6.o)
 .debug_ranges  0x0000000000000110       0x90 build/cooja/mtype152.a(sicslowpan.o)
 .debug_ranges  0x00000000000001a0       0x60 build/cooja/mtype152.a(nbr-table.o)

.debug_macro
 *(.debug_macro)

.debug_addr
 *(.debug_addr)

.gnu.attributes
 *(.gnu.attributes)

/DISCARD/
 *(.note.GNU-stack)
 *(.gnu_debuglink)
 *(.gnu.lto_*)
OUTPUT(build/cooja/mtype152.cooja elf64-x86-64)
